---
triple:          'arm64-apple-darwin'
binary-path:     Ai
relocations:
  - { offsetInCU: 0x3C29, offset: 0x3C29, size: 0x8, addend: 0x0, symName: '__ZNSt3__117__floyd_sift_downB7v160006INS_17_ClassicAlgPolicyERZN2Ai11AStarSearchEP4NodeS4_E3$_0NS_11__wrap_iterIPS4_EEEET1_SA_OT0_NS_15iterator_traitsISA_E15difference_typeE', symObjAddr: 0x19B0, symBinAddr: 0x1000057F0, symSize: 0x154 }
  - { offsetInCU: 0x6DC8, offset: 0x6DC8, size: 0x8, addend: 0x0, symName: __ZNSt3__1neB7v160006IPNS_6vectorI4NodeNS_9allocatorIS2_EEEEEEbRKNS_11__wrap_iterIT_EESB_, symObjAddr: 0x4D8, symBinAddr: 0x100004318, symSize: 0x34 }
  - { offsetInCU: 0x6E0B, offset: 0x6E0B, size: 0x8, addend: 0x0, symName: __ZNSt3__1neB7v160006IP4NodeEEbRKNS_11__wrap_iterIT_EES7_, symObjAddr: 0x584, symBinAddr: 0x1000043C4, symSize: 0x34 }
  - { offsetInCU: 0x6E4E, offset: 0x6E4E, size: 0x8, addend: 0x0, symName: __ZNSt3__1neB7v160006IPP4NodeEEbRKNS_11__wrap_iterIT_EES8_, symObjAddr: 0x8D0, symBinAddr: 0x100004710, symSize: 0x34 }
  - { offsetInCU: 0x6E91, offset: 0x6E91, size: 0x8, addend: 0x0, symName: __ZNSt3__1eqB7v160006IPNS_6vectorI4NodeNS_9allocatorIS2_EEEEEEbRKNS_11__wrap_iterIT_EESB_, symObjAddr: 0x994, symBinAddr: 0x1000047D4, symSize: 0x48 }
  - { offsetInCU: 0x6ED4, offset: 0x6ED4, size: 0x8, addend: 0x0, symName: __ZNSt3__1eqB7v160006IP4NodeEEbRKNS_11__wrap_iterIT_EES7_, symObjAddr: 0x9F4, symBinAddr: 0x100004834, symSize: 0x48 }
  - { offsetInCU: 0x6F17, offset: 0x6F17, size: 0x8, addend: 0x0, symName: __ZNSt3__1eqB7v160006IPP4NodeEEbRKNS_11__wrap_iterIT_EES8_, symObjAddr: 0xA54, symBinAddr: 0x100004894, symSize: 0x48 }
  - { offsetInCU: 0x6F5A, offset: 0x6F5A, size: 0x8, addend: 0x0, symName: __ZNSt3__125__debug_db_invalidate_allB7v160006INS_6vectorIP4NodeNS_9allocatorIS3_EEEEEEvPT_, symObjAddr: 0xBE4, symBinAddr: 0x100004A24, symSize: 0x10 }
  - { offsetInCU: 0x6F8B, offset: 0x6F8B, size: 0x8, addend: 0x0, symName: __ZNSt3__112__to_addressB7v160006IP4NodeEEPT_S4_, symObjAddr: 0xCE0, symBinAddr: 0x100004B20, symSize: 0x14 }
  - { offsetInCU: 0x6FC0, offset: 0x6FC0, size: 0x8, addend: 0x0, symName: __ZNSt3__119__debug_db_insert_cB7v160006INS_6vectorIP4NodeNS_9allocatorIS3_EEEEEEvPT_, symObjAddr: 0xF18, symBinAddr: 0x100004D58, symSize: 0x10 }
  - { offsetInCU: 0x6FF1, offset: 0x6FF1, size: 0x8, addend: 0x0, symName: __ZNSt3__118__debug_db_erase_cB7v160006INS_6vectorIP4NodeNS_9allocatorIS3_EEEEEEvPT_, symObjAddr: 0x11DC, symBinAddr: 0x10000501C, symSize: 0x10 }
  - { offsetInCU: 0x7022, offset: 0x7022, size: 0x8, addend: 0x0, symName: __ZNSt3__119__libcpp_deallocateB7v160006EPvmm, symObjAddr: 0x1260, symBinAddr: 0x1000050A0, symSize: 0x30 }
  - { offsetInCU: 0x706A, offset: 0x706A, size: 0x8, addend: 0x0, symName: __ZNSt3__127__do_deallocate_handle_sizeB7v160006IJEEEvPvmDpT_, symObjAddr: 0x1290, symBinAddr: 0x1000050D0, symSize: 0x28 }
  - { offsetInCU: 0x70A8, offset: 0x70A8, size: 0x8, addend: 0x0, symName: __ZNSt3__124__libcpp_operator_deleteB7v160006IJPvEEEvDpT_, symObjAddr: 0x12B8, symBinAddr: 0x1000050F8, symSize: 0x24 }
  - { offsetInCU: 0x70DD, offset: 0x70DD, size: 0x8, addend: 0x0, symName: '__ZNSt3__19push_heapB7v160006INS_11__wrap_iterIPP4NodeEEZN2Ai11AStarSearchES3_S3_E3$_0EEvT_S8_T0_', symObjAddr: 0x1404, symBinAddr: 0x100005244, symSize: 0x40 }
  - { offsetInCU: 0x7133, offset: 0x7133, size: 0x8, addend: 0x0, symName: '__ZNSt3__111__push_heapB7v160006INS_17_ClassicAlgPolicyENS_11__wrap_iterIPP4NodeEEZN2Ai11AStarSearchES4_S4_E3$_0EEvT0_S9_RT1_', symObjAddr: 0x1444, symBinAddr: 0x100005284, symSize: 0x5C }
  - { offsetInCU: 0x71A0, offset: 0x71A0, size: 0x8, addend: 0x0, symName: __ZNSt3__1miB7v160006IPP4NodeS3_EEDTmicldtfp_4baseEcldtfp0_4baseEERKNS_11__wrap_iterIT_EERKNS5_IT0_EE, symObjAddr: 0x14A0, symBinAddr: 0x1000052E0, symSize: 0x48 }
  - { offsetInCU: 0x71EC, offset: 0x71EC, size: 0x8, addend: 0x0, symName: '__ZNSt3__19__sift_upB7v160006INS_17_ClassicAlgPolicyERZN2Ai11AStarSearchEP4NodeS4_E3$_0NS_11__wrap_iterIPS4_EEEEvT1_SA_OT0_NS_15iterator_traitsISA_E15difference_typeE', symObjAddr: 0x14E8, symBinAddr: 0x100005328, symSize: 0x174 }
  - { offsetInCU: 0x7342, offset: 0x7342, size: 0x8, addend: 0x0, symName: '__ZNSt3__18pop_heapB7v160006INS_11__wrap_iterIPP4NodeEEZN2Ai11AStarSearchES3_S3_E3$_0EEvT_S8_T0_', symObjAddr: 0x17E8, symBinAddr: 0x100005628, symSize: 0x58 }
  - { offsetInCU: 0x73A6, offset: 0x73A6, size: 0x8, addend: 0x0, symName: '__ZNSt3__110__pop_heapB7v160006INS_17_ClassicAlgPolicyEZN2Ai11AStarSearchEP4NodeS4_E3$_0NS_11__wrap_iterIPS4_EEEEvT1_S9_RT0_NS_15iterator_traitsIS9_E15difference_typeE', symObjAddr: 0x186C, symBinAddr: 0x1000056AC, symSize: 0x144 }
  - { offsetInCU: 0x7456, offset: 0x7456, size: 0x8, addend: 0x0, symName: __ZNSt3__13maxB7v160006ImEERKT_S3_S3_, symObjAddr: 0x2120, symBinAddr: 0x100005F60, symSize: 0x2C }
  - { offsetInCU: 0x7499, offset: 0x7499, size: 0x8, addend: 0x0, symName: __ZNSt3__13minB7v160006ImEERKT_S3_S3_, symObjAddr: 0x214C, symBinAddr: 0x100005F8C, symSize: 0x2C }
  - { offsetInCU: 0x76DD, offset: 0x76DD, size: 0x8, addend: 0x0, symName: __ZNSt3__13minB7v160006ImNS_6__lessImmEEEERKT_S5_S5_T0_, symObjAddr: 0x21D8, symBinAddr: 0x100006018, symSize: 0x54 }
  - { offsetInCU: 0x7772, offset: 0x7772, size: 0x8, addend: 0x0, symName: __ZNSt3__120__throw_length_errorB7v160006EPKc, symObjAddr: 0x22B4, symBinAddr: 0x1000060F4, symSize: 0x64 }
  - { offsetInCU: 0x779A, offset: 0x779A, size: 0x8, addend: 0x0, symName: __ZNSt3__13maxB7v160006ImNS_6__lessImmEEEERKT_S5_S5_T0_, symObjAddr: 0x2398, symBinAddr: 0x1000061D8, symSize: 0x54 }
  - { offsetInCU: 0x77F4, offset: 0x77F4, size: 0x8, addend: 0x0, symName: __ZNSt3__119__allocate_at_leastB7v160006INS_9allocatorIP4NodeEEEENS_19__allocation_resultINS_16allocator_traitsIT_E7pointerEEERS7_m, symObjAddr: 0x24FC, symBinAddr: 0x10000633C, symSize: 0x40 }
  - { offsetInCU: 0x7837, offset: 0x7837, size: 0x8, addend: 0x0, symName: __ZNSt3__117__libcpp_allocateB7v160006Emm, symObjAddr: 0x2680, symBinAddr: 0x1000064C0, symSize: 0x28 }
  - { offsetInCU: 0x7874, offset: 0x7874, size: 0x8, addend: 0x0, symName: __ZNSt3__121__libcpp_operator_newB7v160006IJmEEEPvDpT_, symObjAddr: 0x26A8, symBinAddr: 0x1000064E8, symSize: 0x24 }
  - { offsetInCU: 0x78AD, offset: 0x78AD, size: 0x8, addend: 0x0, symName: __ZNSt3__142__uninitialized_allocator_move_if_noexceptB7v160006INS_9allocatorIP4NodeEENS_16reverse_iteratorIPS3_EES7_S3_vEET1_RT_T0_SB_S8_, symObjAddr: 0x2730, symBinAddr: 0x100006570, symSize: 0x78 }
  - { offsetInCU: 0x792A, offset: 0x792A, size: 0x8, addend: 0x0, symName: __ZNSt3__14swapB7v160006IPP4NodeEENS_9enable_ifIXaasr21is_move_constructibleIT_EE5valuesr18is_move_assignableIS5_EE5valueEvE4typeERS5_S8_, symObjAddr: 0x27F4, symBinAddr: 0x100006634, symSize: 0x3C }
  - { offsetInCU: 0x797B, offset: 0x797B, size: 0x8, addend: 0x0, symName: __ZNSt3__14moveB7v160006INS_16reverse_iteratorIPP4NodeEES5_EET0_T_S7_S6_, symObjAddr: 0x28DC, symBinAddr: 0x10000671C, symSize: 0x78 }
  - { offsetInCU: 0x79D5, offset: 0x79D5, size: 0x8, addend: 0x0, symName: __ZNSt3__16__moveB7v160006INS_17_ClassicAlgPolicyENS_16reverse_iteratorIPP4NodeEES6_S6_EENS_4pairIT0_T2_EES8_T1_S9_, symObjAddr: 0x2954, symBinAddr: 0x100006794, symSize: 0x64 }
  - { offsetInCU: 0x7A41, offset: 0x7A41, size: 0x8, addend: 0x0, symName: __ZNSt3__123__dispatch_copy_or_moveB7v160006INS_17_ClassicAlgPolicyENS_11__move_loopIS1_EENS_14__move_trivialENS_16reverse_iteratorIPP4NodeEES9_S9_EENS_4pairIT2_T4_EESB_T3_SC_, symObjAddr: 0x29B8, symBinAddr: 0x1000067F8, symSize: 0x64 }
  - { offsetInCU: 0x7ABF, offset: 0x7ABF, size: 0x8, addend: 0x0, symName: __ZNSt3__121__unwrap_and_dispatchB7v160006INS_10__overloadINS_11__move_loopINS_17_ClassicAlgPolicyEEENS_14__move_trivialEEENS_16reverse_iteratorIPP4NodeEESB_SB_Li0EEENS_4pairIT0_T2_EESD_T1_SE_, symObjAddr: 0x2A1C, symBinAddr: 0x10000685C, symSize: 0x12C }
  - { offsetInCU: 0x7B4F, offset: 0x7B4F, size: 0x8, addend: 0x0, symName: __ZNSt3__114__unwrap_rangeB7v160006INS_16reverse_iteratorIPP4NodeEES5_EENS_4pairIT0_S7_EET_S9_, symObjAddr: 0x2B48, symBinAddr: 0x100006988, symSize: 0x84 }
  - { offsetInCU: 0x7CC1, offset: 0x7CC1, size: 0x8, addend: 0x0, symName: __ZNSt3__113__unwrap_iterB7v160006INS_16reverse_iteratorIPP4NodeEENS_18__unwrap_iter_implIS5_Lb0EEELi0EEEDTclsrT0_8__unwrapclsr3stdE7declvalIT_EEEES9_, symObjAddr: 0x2C6C, symBinAddr: 0x100006AAC, symSize: 0x44 }
  - { offsetInCU: 0x7D05, offset: 0x7D05, size: 0x8, addend: 0x0, symName: __ZNSt3__19make_pairB7v160006INS_16reverse_iteratorIPP4NodeEES5_EENS_4pairINS_18__unwrap_ref_decayIT_E4typeENS7_IT0_E4typeEEEOS8_OSB_, symObjAddr: 0x2CB0, symBinAddr: 0x100006AF0, symSize: 0x38 }
  - { offsetInCU: 0x7D54, offset: 0x7D54, size: 0x8, addend: 0x0, symName: __ZNSt3__114__rewrap_rangeB7v160006INS_16reverse_iteratorIPP4NodeEES5_EET_S6_T0_, symObjAddr: 0x2CE8, symBinAddr: 0x100006B28, symSize: 0x5C }
  - { offsetInCU: 0x7DA0, offset: 0x7DA0, size: 0x8, addend: 0x0, symName: __ZNSt3__113__rewrap_iterB7v160006INS_16reverse_iteratorIPP4NodeEES5_NS_18__unwrap_iter_implIS5_Lb0EEEEET_S8_T0_, symObjAddr: 0x2D44, symBinAddr: 0x100006B84, symSize: 0x74 }
  - { offsetInCU: 0x7DF5, offset: 0x7DF5, size: 0x8, addend: 0x0, symName: __ZNSt3__1neB7v160006IPP4NodeS3_EEbRKNS_16reverse_iteratorIT_EERKNS4_IT0_EE, symObjAddr: 0x2DB8, symBinAddr: 0x100006BF8, symSize: 0x48 }
  - { offsetInCU: 0x813E, offset: 0x813E, size: 0x8, addend: 0x0, symName: __ZSt28__throw_bad_array_new_lengthB7v160006v, symObjAddr: 0x264C, symBinAddr: 0x10000648C, symSize: 0x34 }
  - { offsetInCU: 0x86BD, offset: 0x86BD, size: 0x8, addend: 0x0, symName: __ZNSt3__16vectorIP4NodeNS_9allocatorIS2_EEE26__swap_out_circular_bufferERNS_14__split_bufferIS2_RS4_EE, symObjAddr: 0x1F60, symBinAddr: 0x100005DA0, symSize: 0x118 }
  - { offsetInCU: 0xAB85, offset: 0xAB85, size: 0x8, addend: 0x0, symName: __ZN2Ai11AStarSearchEP4NodeS1_, symObjAddr: 0x0, symBinAddr: 0x100003E40, symSize: 0x3F0 }
  - { offsetInCU: 0xAD62, offset: 0xAD62, size: 0x8, addend: 0x0, symName: __ZNSt3__16vectorIP4NodeNS_9allocatorIS2_EEE5clearB7v160006Ev, symObjAddr: 0x3F0, symBinAddr: 0x100004230, symSize: 0x54 }
  - { offsetInCU: 0xADDD, offset: 0xADDD, size: 0x8, addend: 0x0, symName: '__ZNSt3__114priority_queueIP4NodeNS_6vectorIS2_NS_9allocatorIS2_EEEEZN2Ai11AStarSearchES2_S2_E3$_0EC1B7v160006ERKS8_', symObjAddr: 0x444, symBinAddr: 0x100004284, symSize: 0x34 }
  - { offsetInCU: 0xAE14, offset: 0xAE14, size: 0x8, addend: 0x0, symName: __ZNSt3__16vectorINS0_I4NodeNS_9allocatorIS1_EEEENS2_IS4_EEE5beginB7v160006Ev, symObjAddr: 0x478, symBinAddr: 0x1000042B8, symSize: 0x30 }
  - { offsetInCU: 0xAE3A, offset: 0xAE3A, size: 0x8, addend: 0x0, symName: __ZNSt3__16vectorINS0_I4NodeNS_9allocatorIS1_EEEENS2_IS4_EEE3endB7v160006Ev, symObjAddr: 0x4A8, symBinAddr: 0x1000042E8, symSize: 0x30 }
  - { offsetInCU: 0xAE61, offset: 0xAE61, size: 0x8, addend: 0x0, symName: __ZNKSt3__111__wrap_iterIPNS_6vectorI4NodeNS_9allocatorIS2_EEEEEdeB7v160006Ev, symObjAddr: 0x50C, symBinAddr: 0x10000434C, symSize: 0x18 }
  - { offsetInCU: 0xAE85, offset: 0xAE85, size: 0x8, addend: 0x0, symName: __ZNSt3__16vectorI4NodeNS_9allocatorIS1_EEE5beginB7v160006Ev, symObjAddr: 0x524, symBinAddr: 0x100004364, symSize: 0x30 }
  - { offsetInCU: 0xAEAB, offset: 0xAEAB, size: 0x8, addend: 0x0, symName: __ZNSt3__16vectorI4NodeNS_9allocatorIS1_EEE3endB7v160006Ev, symObjAddr: 0x554, symBinAddr: 0x100004394, symSize: 0x30 }
  - { offsetInCU: 0xAED2, offset: 0xAED2, size: 0x8, addend: 0x0, symName: __ZNKSt3__111__wrap_iterIP4NodeEdeB7v160006Ev, symObjAddr: 0x5B8, symBinAddr: 0x1000043F8, symSize: 0x18 }
  - { offsetInCU: 0xAEF7, offset: 0xAEF7, size: 0x8, addend: 0x0, symName: __ZN4Node5ResetEv, symObjAddr: 0x5D0, symBinAddr: 0x100004410, symSize: 0x30 }
  - { offsetInCU: 0xAF1C, offset: 0xAF1C, size: 0x8, addend: 0x0, symName: __ZNSt3__111__wrap_iterIP4NodeEppB7v160006Ev, symObjAddr: 0x600, symBinAddr: 0x100004440, symSize: 0x20 }
  - { offsetInCU: 0xAF41, offset: 0xAF41, size: 0x8, addend: 0x0, symName: __ZNSt3__111__wrap_iterIPNS_6vectorI4NodeNS_9allocatorIS2_EEEEEppB7v160006Ev, symObjAddr: 0x620, symBinAddr: 0x100004460, symSize: 0x20 }
  - { offsetInCU: 0xAF70, offset: 0xAF70, size: 0x8, addend: 0x0, symName: '__ZZN2Ai11AStarSearchEP4NodeS1_ENK3$_1clES1_S1_', symObjAddr: 0x640, symBinAddr: 0x100004480, symSize: 0x68 }
  - { offsetInCU: 0xAFB4, offset: 0xAFB4, size: 0x8, addend: 0x0, symName: '__ZNSt3__114priority_queueIP4NodeNS_6vectorIS2_NS_9allocatorIS2_EEEEZN2Ai11AStarSearchES2_S2_E3$_0E4pushERKS2_', symObjAddr: 0x6A8, symBinAddr: 0x1000044E8, symSize: 0x58 }
  - { offsetInCU: 0xAFEA, offset: 0xAFEA, size: 0x8, addend: 0x0, symName: '__ZNKSt3__114priority_queueIP4NodeNS_6vectorIS2_NS_9allocatorIS2_EEEEZN2Ai11AStarSearchES2_S2_E3$_0E5emptyB7v160006Ev', symObjAddr: 0x700, symBinAddr: 0x100004540, symSize: 0x28 }
  - { offsetInCU: 0xB00F, offset: 0xB00F, size: 0x8, addend: 0x0, symName: '__ZNKSt3__114priority_queueIP4NodeNS_6vectorIS2_NS_9allocatorIS2_EEEEZN2Ai11AStarSearchES2_S2_E3$_0E3topB7v160006Ev', symObjAddr: 0x728, symBinAddr: 0x100004568, symSize: 0x24 }
  - { offsetInCU: 0xB033, offset: 0xB033, size: 0x8, addend: 0x0, symName: '__ZNSt3__114priority_queueIP4NodeNS_6vectorIS2_NS_9allocatorIS2_EEEEZN2Ai11AStarSearchES2_S2_E3$_0E3popEv', symObjAddr: 0x74C, symBinAddr: 0x10000458C, symSize: 0x50 }
  - { offsetInCU: 0xB05A, offset: 0xB05A, size: 0x8, addend: 0x0, symName: __ZNK4Node10atSameSpotERKS_, symObjAddr: 0x79C, symBinAddr: 0x1000045DC, symSize: 0x68 }
  - { offsetInCU: 0xB08C, offset: 0xB08C, size: 0x8, addend: 0x0, symName: __ZNSt3__16vectorIP4NodeNS_9allocatorIS2_EEE9push_backB7v160006ERKS2_, symObjAddr: 0x804, symBinAddr: 0x100004644, symSize: 0x6C }
  - { offsetInCU: 0xB0C1, offset: 0xB0C1, size: 0x8, addend: 0x0, symName: __ZNSt3__16vectorIP4NodeNS_9allocatorIS2_EEE5beginB7v160006Ev, symObjAddr: 0x870, symBinAddr: 0x1000046B0, symSize: 0x30 }
  - { offsetInCU: 0xB0E7, offset: 0xB0E7, size: 0x8, addend: 0x0, symName: __ZNSt3__16vectorIP4NodeNS_9allocatorIS2_EEE3endB7v160006Ev, symObjAddr: 0x8A0, symBinAddr: 0x1000046E0, symSize: 0x30 }
  - { offsetInCU: 0xB10E, offset: 0xB10E, size: 0x8, addend: 0x0, symName: __ZNKSt3__111__wrap_iterIPP4NodeEdeB7v160006Ev, symObjAddr: 0x904, symBinAddr: 0x100004744, symSize: 0x18 }
  - { offsetInCU: 0xB133, offset: 0xB133, size: 0x8, addend: 0x0, symName: __ZNSt3__111__wrap_iterIPP4NodeEppB7v160006Ev, symObjAddr: 0x91C, symBinAddr: 0x10000475C, symSize: 0x20 }
  - { offsetInCU: 0xB158, offset: 0xB158, size: 0x8, addend: 0x0, symName: __ZNSt3__16vectorIP4NodeNS_9allocatorIS2_EEED1B7v160006Ev, symObjAddr: 0x93C, symBinAddr: 0x10000477C, symSize: 0x2C }
  - { offsetInCU: 0xB181, offset: 0xB181, size: 0x8, addend: 0x0, symName: '__ZNSt3__114priority_queueIP4NodeNS_6vectorIS2_NS_9allocatorIS2_EEEEZN2Ai11AStarSearchES2_S2_E3$_0ED1Ev', symObjAddr: 0x968, symBinAddr: 0x1000047A8, symSize: 0x2C }
  - { offsetInCU: 0xB1AD, offset: 0xB1AD, size: 0x8, addend: 0x0, symName: __ZNKSt3__111__wrap_iterIPNS_6vectorI4NodeNS_9allocatorIS2_EEEEE4baseB7v160006Ev, symObjAddr: 0x9DC, symBinAddr: 0x10000481C, symSize: 0x18 }
  - { offsetInCU: 0xB1D2, offset: 0xB1D2, size: 0x8, addend: 0x0, symName: __ZNKSt3__111__wrap_iterIP4NodeE4baseB7v160006Ev, symObjAddr: 0xA3C, symBinAddr: 0x10000487C, symSize: 0x18 }
  - { offsetInCU: 0xB1F7, offset: 0xB1F7, size: 0x8, addend: 0x0, symName: __ZNKSt3__111__wrap_iterIPP4NodeE4baseB7v160006Ev, symObjAddr: 0xA9C, symBinAddr: 0x1000048DC, symSize: 0x18 }
  - { offsetInCU: 0xB21C, offset: 0xB21C, size: 0x8, addend: 0x0, symName: '__ZNSt3__114priority_queueIP4NodeNS_6vectorIS2_NS_9allocatorIS2_EEEEZN2Ai11AStarSearchES2_S2_E3$_0ED2Ev', symObjAddr: 0xAB4, symBinAddr: 0x1000048F4, symSize: 0x2C }
  - { offsetInCU: 0xB248, offset: 0xB248, size: 0x8, addend: 0x0, symName: __ZNKSt3__16vectorIP4NodeNS_9allocatorIS2_EEE4sizeB7v160006Ev, symObjAddr: 0xAE0, symBinAddr: 0x100004920, symSize: 0x28 }
  - { offsetInCU: 0xB26D, offset: 0xB26D, size: 0x8, addend: 0x0, symName: __ZNSt3__16vectorIP4NodeNS_9allocatorIS2_EEE7__clearB7v160006Ev, symObjAddr: 0xB08, symBinAddr: 0x100004948, symSize: 0x28 }
  - { offsetInCU: 0xB292, offset: 0xB292, size: 0x8, addend: 0x0, symName: __ZNKSt3__16vectorIP4NodeNS_9allocatorIS2_EEE17__annotate_shrinkB7v160006Em, symObjAddr: 0xB30, symBinAddr: 0x100004970, symSize: 0xB4 }
  - { offsetInCU: 0xB2C6, offset: 0xB2C6, size: 0x8, addend: 0x0, symName: __ZNSt3__16vectorIP4NodeNS_9allocatorIS2_EEE22__base_destruct_at_endB7v160006EPS2_, symObjAddr: 0xC00, symBinAddr: 0x100004A40, symSize: 0x8C }
  - { offsetInCU: 0xB30A, offset: 0xB30A, size: 0x8, addend: 0x0, symName: __ZNSt3__116allocator_traitsINS_9allocatorIP4NodeEEE7destroyB7v160006IS3_vEEvRS4_PT_, symObjAddr: 0xC8C, symBinAddr: 0x100004ACC, symSize: 0x2C }
  - { offsetInCU: 0xB347, offset: 0xB347, size: 0x8, addend: 0x0, symName: __ZNSt3__16vectorIP4NodeNS_9allocatorIS2_EEE7__allocB7v160006Ev, symObjAddr: 0xCB8, symBinAddr: 0x100004AF8, symSize: 0x28 }
  - { offsetInCU: 0xB36C, offset: 0xB36C, size: 0x8, addend: 0x0, symName: __ZNSt3__19allocatorIP4NodeE7destroyB7v160006EPS2_, symObjAddr: 0xCF4, symBinAddr: 0x100004B34, symSize: 0x14 }
  - { offsetInCU: 0xB39F, offset: 0xB39F, size: 0x8, addend: 0x0, symName: __ZNSt3__117__compressed_pairIPP4NodeNS_9allocatorIS2_EEE6secondB7v160006Ev, symObjAddr: 0xD08, symBinAddr: 0x100004B48, symSize: 0x24 }
  - { offsetInCU: 0xB3C4, offset: 0xB3C4, size: 0x8, addend: 0x0, symName: __ZNSt3__122__compressed_pair_elemINS_9allocatorIP4NodeEELi1ELb1EE5__getB7v160006Ev, symObjAddr: 0xD2C, symBinAddr: 0x100004B6C, symSize: 0x14 }
  - { offsetInCU: 0xB3E9, offset: 0xB3E9, size: 0x8, addend: 0x0, symName: __ZNKSt3__16vectorIP4NodeNS_9allocatorIS2_EEE31__annotate_contiguous_containerB7v160006EPKvS7_S7_S7_, symObjAddr: 0xD40, symBinAddr: 0x100004B80, symSize: 0x20 }
  - { offsetInCU: 0xB43A, offset: 0xB43A, size: 0x8, addend: 0x0, symName: __ZNKSt3__16vectorIP4NodeNS_9allocatorIS2_EEE4dataB7v160006Ev, symObjAddr: 0xD60, symBinAddr: 0x100004BA0, symSize: 0x28 }
  - { offsetInCU: 0xB45F, offset: 0xB45F, size: 0x8, addend: 0x0, symName: __ZNKSt3__16vectorIP4NodeNS_9allocatorIS2_EEE8capacityB7v160006Ev, symObjAddr: 0xD88, symBinAddr: 0x100004BC8, symSize: 0x40 }
  - { offsetInCU: 0xB484, offset: 0xB484, size: 0x8, addend: 0x0, symName: __ZNKSt3__16vectorIP4NodeNS_9allocatorIS2_EEE9__end_capB7v160006Ev, symObjAddr: 0xDC8, symBinAddr: 0x100004C08, symSize: 0x28 }
  - { offsetInCU: 0xB4A9, offset: 0xB4A9, size: 0x8, addend: 0x0, symName: __ZNKSt3__117__compressed_pairIPP4NodeNS_9allocatorIS2_EEE5firstB7v160006Ev, symObjAddr: 0xDF0, symBinAddr: 0x100004C30, symSize: 0x24 }
  - { offsetInCU: 0xB4CE, offset: 0xB4CE, size: 0x8, addend: 0x0, symName: __ZNKSt3__122__compressed_pair_elemIPP4NodeLi0ELb0EE5__getB7v160006Ev, symObjAddr: 0xE14, symBinAddr: 0x100004C54, symSize: 0x14 }
  - { offsetInCU: 0xB4F3, offset: 0xB4F3, size: 0x8, addend: 0x0, symName: '__ZNSt3__114priority_queueIP4NodeNS_6vectorIS2_NS_9allocatorIS2_EEEEZN2Ai11AStarSearchES2_S2_E3$_0EC2B7v160006ERKS8_', symObjAddr: 0xE28, symBinAddr: 0x100004C68, symSize: 0x30 }
  - { offsetInCU: 0xB52B, offset: 0xB52B, size: 0x8, addend: 0x0, symName: __ZNSt3__16vectorIP4NodeNS_9allocatorIS2_EEEC1B7v160006Ev, symObjAddr: 0xE58, symBinAddr: 0x100004C98, symSize: 0x2C }
  - { offsetInCU: 0xB554, offset: 0xB554, size: 0x8, addend: 0x0, symName: __ZNSt3__16vectorIP4NodeNS_9allocatorIS2_EEEC2B7v160006Ev, symObjAddr: 0xE84, symBinAddr: 0x100004CC4, symSize: 0x58 }
  - { offsetInCU: 0xB587, offset: 0xB587, size: 0x8, addend: 0x0, symName: __ZNSt3__117__compressed_pairIPP4NodeNS_9allocatorIS2_EEEC1B7v160006IDnNS_18__default_init_tagEEEOT_OT0_, symObjAddr: 0xEDC, symBinAddr: 0x100004D1C, symSize: 0x3C }
  - { offsetInCU: 0xB5DE, offset: 0xB5DE, size: 0x8, addend: 0x0, symName: __ZNSt3__117__compressed_pairIPP4NodeNS_9allocatorIS2_EEEC2B7v160006IDnNS_18__default_init_tagEEEOT_OT0_, symObjAddr: 0xF28, symBinAddr: 0x100004D68, symSize: 0x40 }
  - { offsetInCU: 0xB635, offset: 0xB635, size: 0x8, addend: 0x0, symName: __ZNSt3__122__compressed_pair_elemIPP4NodeLi0ELb0EEC2B7v160006IDnvEEOT_, symObjAddr: 0xF68, symBinAddr: 0x100004DA8, symSize: 0x1C }
  - { offsetInCU: 0xB676, offset: 0xB676, size: 0x8, addend: 0x0, symName: __ZNSt3__122__compressed_pair_elemINS_9allocatorIP4NodeEELi1ELb1EEC2B7v160006ENS_18__default_init_tagE, symObjAddr: 0xF84, symBinAddr: 0x100004DC4, symSize: 0x2C }
  - { offsetInCU: 0xB6AA, offset: 0xB6AA, size: 0x8, addend: 0x0, symName: __ZNSt3__19allocatorIP4NodeEC2B7v160006Ev, symObjAddr: 0xFB0, symBinAddr: 0x100004DF0, symSize: 0x2C }
  - { offsetInCU: 0xB6D3, offset: 0xB6D3, size: 0x8, addend: 0x0, symName: __ZNSt3__116__non_trivial_ifILb1ENS_9allocatorIP4NodeEEEC2B7v160006Ev, symObjAddr: 0xFDC, symBinAddr: 0x100004E1C, symSize: 0x14 }
  - { offsetInCU: 0xB6FC, offset: 0xB6FC, size: 0x8, addend: 0x0, symName: __ZNSt3__16vectorIP4NodeNS_9allocatorIS2_EEED2B7v160006Ev, symObjAddr: 0xFF0, symBinAddr: 0x100004E30, symSize: 0x44 }
  - { offsetInCU: 0xB725, offset: 0xB725, size: 0x8, addend: 0x0, symName: __ZNSt3__16vectorIP4NodeNS_9allocatorIS2_EEE16__destroy_vectorC1ERS5_, symObjAddr: 0x1034, symBinAddr: 0x100004E74, symSize: 0x34 }
  - { offsetInCU: 0xB75D, offset: 0xB75D, size: 0x8, addend: 0x0, symName: __ZNSt3__16vectorIP4NodeNS_9allocatorIS2_EEE16__destroy_vectorclB7v160006Ev, symObjAddr: 0x1068, symBinAddr: 0x100004EA8, symSize: 0x9C }
  - { offsetInCU: 0xB782, offset: 0xB782, size: 0x8, addend: 0x0, symName: __ZNSt3__16vectorIP4NodeNS_9allocatorIS2_EEE16__destroy_vectorC2ERS5_, symObjAddr: 0x1104, symBinAddr: 0x100004F44, symSize: 0x20 }
  - { offsetInCU: 0xB7BA, offset: 0xB7BA, size: 0x8, addend: 0x0, symName: __ZNKSt3__16vectorIP4NodeNS_9allocatorIS2_EEE17__annotate_deleteB7v160006Ev, symObjAddr: 0x1124, symBinAddr: 0x100004F64, symSize: 0xB8 }
  - { offsetInCU: 0xB7DF, offset: 0xB7DF, size: 0x8, addend: 0x0, symName: __ZNSt3__116allocator_traitsINS_9allocatorIP4NodeEEE10deallocateB7v160006ERS4_PS3_m, symObjAddr: 0x11EC, symBinAddr: 0x10000502C, symSize: 0x34 }
  - { offsetInCU: 0xB821, offset: 0xB821, size: 0x8, addend: 0x0, symName: __ZNSt3__19allocatorIP4NodeE10deallocateB7v160006EPS2_m, symObjAddr: 0x1220, symBinAddr: 0x100005060, symSize: 0x40 }
  - { offsetInCU: 0xB862, offset: 0xB862, size: 0x8, addend: 0x0, symName: __ZNSt3__16vectorINS0_I4NodeNS_9allocatorIS1_EEEENS2_IS4_EEE11__make_iterB7v160006EPS4_, symObjAddr: 0x12DC, symBinAddr: 0x10000511C, symSize: 0x34 }
  - { offsetInCU: 0xB896, offset: 0xB896, size: 0x8, addend: 0x0, symName: __ZNSt3__111__wrap_iterIPNS_6vectorI4NodeNS_9allocatorIS2_EEEEEC1B7v160006EPKvS6_, symObjAddr: 0x1310, symBinAddr: 0x100005150, symSize: 0x3C }
  - { offsetInCU: 0xB8DB, offset: 0xB8DB, size: 0x8, addend: 0x0, symName: __ZNSt3__111__wrap_iterIPNS_6vectorI4NodeNS_9allocatorIS2_EEEEEC2B7v160006EPKvS6_, symObjAddr: 0x134C, symBinAddr: 0x10000518C, symSize: 0x24 }
  - { offsetInCU: 0xB920, offset: 0xB920, size: 0x8, addend: 0x0, symName: __ZNSt3__16vectorI4NodeNS_9allocatorIS1_EEE11__make_iterB7v160006EPS1_, symObjAddr: 0x1370, symBinAddr: 0x1000051B0, symSize: 0x34 }
  - { offsetInCU: 0xB954, offset: 0xB954, size: 0x8, addend: 0x0, symName: __ZNSt3__111__wrap_iterIP4NodeEC1B7v160006EPKvS2_, symObjAddr: 0x13A4, symBinAddr: 0x1000051E4, symSize: 0x3C }
  - { offsetInCU: 0xB999, offset: 0xB999, size: 0x8, addend: 0x0, symName: __ZNSt3__111__wrap_iterIP4NodeEC2B7v160006EPKvS2_, symObjAddr: 0x13E0, symBinAddr: 0x100005220, symSize: 0x24 }
  - { offsetInCU: 0xB9DE, offset: 0xB9DE, size: 0x8, addend: 0x0, symName: __ZNKSt3__111__wrap_iterIPP4NodeEplB7v160006El, symObjAddr: 0x165C, symBinAddr: 0x10000549C, symSize: 0x3C }
  - { offsetInCU: 0xBA29, offset: 0xBA29, size: 0x8, addend: 0x0, symName: '__ZZN2Ai11AStarSearchEP4NodeS1_ENK3$_0clES1_S1_', symObjAddr: 0x1698, symBinAddr: 0x1000054D8, symSize: 0x9C }
  - { offsetInCU: 0xBA6E, offset: 0xBA6E, size: 0x8, addend: 0x0, symName: __ZNSt3__111__wrap_iterIPP4NodeEmmB7v160006Ev, symObjAddr: 0x1734, symBinAddr: 0x100005574, symSize: 0x20 }
  - { offsetInCU: 0xBA98, offset: 0xBA98, size: 0x8, addend: 0x0, symName: __ZNSt3__18_IterOpsINS_17_ClassicAlgPolicyEE11__iter_moveB7v160006IRNS_11__wrap_iterIPP4NodeEEEENS_9enable_ifIXsr12is_referenceIDTdeclsr3stdE7declvalIRT_EEEEE5valueEDTclsr3stdE4movedeclsr3stdE7declvalISC_EEEEE4typeEOSB_, symObjAddr: 0x1754, symBinAddr: 0x100005594, symSize: 0x28 }
  - { offsetInCU: 0xBAC4, offset: 0xBAC4, size: 0x8, addend: 0x0, symName: __ZNSt3__111__wrap_iterIPP4NodeEpLB7v160006El, symObjAddr: 0x177C, symBinAddr: 0x1000055BC, symSize: 0x28 }
  - { offsetInCU: 0xBAF7, offset: 0xBAF7, size: 0x8, addend: 0x0, symName: __ZNSt3__18_IterOpsINS_17_ClassicAlgPolicyEE25__validate_iter_referenceB7v160006IRNS_11__wrap_iterIPP4NodeEEEEvv, symObjAddr: 0x17A4, symBinAddr: 0x1000055E4, symSize: 0x4 }
  - { offsetInCU: 0xBB15, offset: 0xBB15, size: 0x8, addend: 0x0, symName: __ZNKSt3__16vectorIP4NodeNS_9allocatorIS2_EEE5emptyB7v160006Ev, symObjAddr: 0x17A8, symBinAddr: 0x1000055E8, symSize: 0x28 }
  - { offsetInCU: 0xBB3A, offset: 0xBB3A, size: 0x8, addend: 0x0, symName: __ZNKSt3__16vectorIP4NodeNS_9allocatorIS2_EEE5frontB7v160006Ev, symObjAddr: 0x17D0, symBinAddr: 0x100005610, symSize: 0x18 }
  - { offsetInCU: 0xBB5E, offset: 0xBB5E, size: 0x8, addend: 0x0, symName: __ZNSt3__16vectorIP4NodeNS_9allocatorIS2_EEE8pop_backEv, symObjAddr: 0x1840, symBinAddr: 0x100005680, symSize: 0x2C }
  - { offsetInCU: 0xBB85, offset: 0xBB85, size: 0x8, addend: 0x0, symName: __ZNSt3__16vectorIP4NodeNS_9allocatorIS2_EEE17__destruct_at_endB7v160006EPS2_, symObjAddr: 0x1B04, symBinAddr: 0x100005944, symSize: 0x60 }
  - { offsetInCU: 0xBBC9, offset: 0xBBC9, size: 0x8, addend: 0x0, symName: __ZNSt3__16vectorIP4NodeNS_9allocatorIS2_EEE27__invalidate_iterators_pastB7v160006EPS2_, symObjAddr: 0x1B64, symBinAddr: 0x1000059A4, symSize: 0x14 }
  - { offsetInCU: 0xBBFF, offset: 0xBBFF, size: 0x8, addend: 0x0, symName: __ZNSt3__16vectorIP4NodeNS_9allocatorIS2_EEE9__end_capB7v160006Ev, symObjAddr: 0x1B78, symBinAddr: 0x1000059B8, symSize: 0x28 }
  - { offsetInCU: 0xBC24, offset: 0xBC24, size: 0x8, addend: 0x0, symName: __ZNSt3__16vectorIP4NodeNS_9allocatorIS2_EEE22__construct_one_at_endB7v160006IJRKS2_EEEvDpOT_, symObjAddr: 0x1BA0, symBinAddr: 0x1000059E0, symSize: 0x90 }
  - { offsetInCU: 0xBC72, offset: 0xBC72, size: 0x8, addend: 0x0, symName: __ZNSt3__16vectorIP4NodeNS_9allocatorIS2_EEE21__push_back_slow_pathIRKS2_EEvOT_, symObjAddr: 0x1C30, symBinAddr: 0x100005A70, symSize: 0xD8 }
  - { offsetInCU: 0xBCD1, offset: 0xBCD1, size: 0x8, addend: 0x0, symName: __ZNSt3__117__compressed_pairIPP4NodeNS_9allocatorIS2_EEE5firstB7v160006Ev, symObjAddr: 0x1D08, symBinAddr: 0x100005B48, symSize: 0x24 }
  - { offsetInCU: 0xBCF6, offset: 0xBCF6, size: 0x8, addend: 0x0, symName: __ZNSt3__122__compressed_pair_elemIPP4NodeLi0ELb0EE5__getB7v160006Ev, symObjAddr: 0x1D2C, symBinAddr: 0x100005B6C, symSize: 0x14 }
  - { offsetInCU: 0xBD34, offset: 0xBD34, size: 0x8, addend: 0x0, symName: __ZNSt3__16vectorIP4NodeNS_9allocatorIS2_EEE21_ConstructTransactionC1B7v160006ERS5_m, symObjAddr: 0x1D40, symBinAddr: 0x100005B80, symSize: 0x3C }
  - { offsetInCU: 0xBD7B, offset: 0xBD7B, size: 0x8, addend: 0x0, symName: __ZNSt3__116allocator_traitsINS_9allocatorIP4NodeEEE9constructB7v160006IS3_JRKS3_EvEEvRS4_PT_DpOT0_, symObjAddr: 0x1D7C, symBinAddr: 0x100005BBC, symSize: 0x34 }
  - { offsetInCU: 0xBDD2, offset: 0xBDD2, size: 0x8, addend: 0x0, symName: __ZNSt3__16vectorIP4NodeNS_9allocatorIS2_EEE21_ConstructTransactionD1B7v160006Ev, symObjAddr: 0x1DB0, symBinAddr: 0x100005BF0, symSize: 0x2C }
  - { offsetInCU: 0xBDFB, offset: 0xBDFB, size: 0x8, addend: 0x0, symName: __ZNSt3__16vectorIP4NodeNS_9allocatorIS2_EEE21_ConstructTransactionC2B7v160006ERS5_m, symObjAddr: 0x1DDC, symBinAddr: 0x100005C1C, symSize: 0x44 }
  - { offsetInCU: 0xBE42, offset: 0xBE42, size: 0x8, addend: 0x0, symName: __ZNSt3__19allocatorIP4NodeE9constructB7v160006IS2_JRKS2_EEEvPT_DpOT0_, symObjAddr: 0x1E20, symBinAddr: 0x100005C60, symSize: 0x28 }
  - { offsetInCU: 0xBE97, offset: 0xBE97, size: 0x8, addend: 0x0, symName: __ZNSt3__16vectorIP4NodeNS_9allocatorIS2_EEE21_ConstructTransactionD2B7v160006Ev, symObjAddr: 0x1E48, symBinAddr: 0x100005C88, symSize: 0x20 }
  - { offsetInCU: 0xBEBF, offset: 0xBEBF, size: 0x8, addend: 0x0, symName: __ZNKSt3__16vectorIP4NodeNS_9allocatorIS2_EEE11__recommendB7v160006Em, symObjAddr: 0x1E68, symBinAddr: 0x100005CA8, symSize: 0xB4 }
  - { offsetInCU: 0xBF15, offset: 0xBF15, size: 0x8, addend: 0x0, symName: __ZNSt3__114__split_bufferIP4NodeRNS_9allocatorIS2_EEEC1EmmS5_, symObjAddr: 0x1F1C, symBinAddr: 0x100005D5C, symSize: 0x44 }
  - { offsetInCU: 0xBF6A, offset: 0xBF6A, size: 0x8, addend: 0x0, symName: __ZNSt3__114__split_bufferIP4NodeRNS_9allocatorIS2_EEED1Ev, symObjAddr: 0x2078, symBinAddr: 0x100005EB8, symSize: 0x2C }
  - { offsetInCU: 0xBF94, offset: 0xBF94, size: 0x8, addend: 0x0, symName: __ZNKSt3__16vectorIP4NodeNS_9allocatorIS2_EEE8max_sizeEv, symObjAddr: 0x20A4, symBinAddr: 0x100005EE4, symSize: 0x60 }
  - { offsetInCU: 0xBFBB, offset: 0xBFBB, size: 0x8, addend: 0x0, symName: __ZNKSt3__16vectorIP4NodeNS_9allocatorIS2_EEE20__throw_length_errorB7v160006Ev, symObjAddr: 0x2104, symBinAddr: 0x100005F44, symSize: 0x1C }
  - { offsetInCU: 0xBFEA, offset: 0xBFEA, size: 0x8, addend: 0x0, symName: __ZNSt3__116allocator_traitsINS_9allocatorIP4NodeEEE8max_sizeB7v160006IS4_vEEmRKS4_, symObjAddr: 0x2178, symBinAddr: 0x100005FB8, symSize: 0x24 }
  - { offsetInCU: 0xC018, offset: 0xC018, size: 0x8, addend: 0x0, symName: __ZNKSt3__16vectorIP4NodeNS_9allocatorIS2_EEE7__allocB7v160006Ev, symObjAddr: 0x219C, symBinAddr: 0x100005FDC, symSize: 0x28 }
  - { offsetInCU: 0xC03D, offset: 0xC03D, size: 0x8, addend: 0x0, symName: __ZNSt3__114numeric_limitsIlE3maxB7v160006Ev, symObjAddr: 0x21C4, symBinAddr: 0x100006004, symSize: 0x14 }
  - { offsetInCU: 0xC065, offset: 0xC065, size: 0x8, addend: 0x0, symName: __ZNKSt3__16__lessImmEclB7v160006ERKmS3_, symObjAddr: 0x222C, symBinAddr: 0x10000606C, symSize: 0x34 }
  - { offsetInCU: 0xC0A6, offset: 0xC0A6, size: 0x8, addend: 0x0, symName: __ZNKSt3__19allocatorIP4NodeE8max_sizeB7v160006Ev, symObjAddr: 0x2260, symBinAddr: 0x1000060A0, symSize: 0x14 }
  - { offsetInCU: 0xC0CB, offset: 0xC0CB, size: 0x8, addend: 0x0, symName: __ZNKSt3__117__compressed_pairIPP4NodeNS_9allocatorIS2_EEE6secondB7v160006Ev, symObjAddr: 0x2274, symBinAddr: 0x1000060B4, symSize: 0x24 }
  - { offsetInCU: 0xC0F0, offset: 0xC0F0, size: 0x8, addend: 0x0, symName: __ZNKSt3__122__compressed_pair_elemINS_9allocatorIP4NodeEELi1ELb1EE5__getB7v160006Ev, symObjAddr: 0x2298, symBinAddr: 0x1000060D8, symSize: 0x14 }
  - { offsetInCU: 0xC115, offset: 0xC115, size: 0x8, addend: 0x0, symName: __ZNSt3__123__libcpp_numeric_limitsIlLb1EE3maxB7v160006Ev, symObjAddr: 0x22AC, symBinAddr: 0x1000060EC, symSize: 0x8 }
  - { offsetInCU: 0xC129, offset: 0xC129, size: 0x8, addend: 0x0, symName: __ZNSt12length_errorC1B7v160006EPKc, symObjAddr: 0x2318, symBinAddr: 0x100006158, symSize: 0x34 }
  - { offsetInCU: 0xC160, offset: 0xC160, size: 0x8, addend: 0x0, symName: __ZNSt12length_errorC2B7v160006EPKc, symObjAddr: 0x234C, symBinAddr: 0x10000618C, symSize: 0x4C }
  - { offsetInCU: 0xC197, offset: 0xC197, size: 0x8, addend: 0x0, symName: __ZNSt3__114__split_bufferIP4NodeRNS_9allocatorIS2_EEEC2EmmS5_, symObjAddr: 0x23EC, symBinAddr: 0x10000622C, symSize: 0xD4 }
  - { offsetInCU: 0xC20A, offset: 0xC20A, size: 0x8, addend: 0x0, symName: __ZNSt3__117__compressed_pairIPP4NodeRNS_9allocatorIS2_EEEC1B7v160006IDnS6_EEOT_OT0_, symObjAddr: 0x24C0, symBinAddr: 0x100006300, symSize: 0x3C }
  - { offsetInCU: 0xC261, offset: 0xC261, size: 0x8, addend: 0x0, symName: __ZNSt3__114__split_bufferIP4NodeRNS_9allocatorIS2_EEE7__allocB7v160006Ev, symObjAddr: 0x253C, symBinAddr: 0x10000637C, symSize: 0x28 }
  - { offsetInCU: 0xC286, offset: 0xC286, size: 0x8, addend: 0x0, symName: __ZNSt3__114__split_bufferIP4NodeRNS_9allocatorIS2_EEE9__end_capB7v160006Ev, symObjAddr: 0x2564, symBinAddr: 0x1000063A4, symSize: 0x28 }
  - { offsetInCU: 0xC2AB, offset: 0xC2AB, size: 0x8, addend: 0x0, symName: __ZNSt3__117__compressed_pairIPP4NodeRNS_9allocatorIS2_EEEC2B7v160006IDnS6_EEOT_OT0_, symObjAddr: 0x258C, symBinAddr: 0x1000063CC, symSize: 0x48 }
  - { offsetInCU: 0xC302, offset: 0xC302, size: 0x8, addend: 0x0, symName: __ZNSt3__122__compressed_pair_elemIRNS_9allocatorIP4NodeEELi1ELb0EEC2B7v160006IS5_vEEOT_, symObjAddr: 0x25D4, symBinAddr: 0x100006414, symSize: 0x20 }
  - { offsetInCU: 0xC343, offset: 0xC343, size: 0x8, addend: 0x0, symName: __ZNSt3__19allocatorIP4NodeE8allocateB7v160006Em, symObjAddr: 0x25F4, symBinAddr: 0x100006434, symSize: 0x58 }
  - { offsetInCU: 0xC376, offset: 0xC376, size: 0x8, addend: 0x0, symName: __ZNSt3__117__compressed_pairIPP4NodeRNS_9allocatorIS2_EEE6secondB7v160006Ev, symObjAddr: 0x26CC, symBinAddr: 0x10000650C, symSize: 0x28 }
  - { offsetInCU: 0xC39B, offset: 0xC39B, size: 0x8, addend: 0x0, symName: __ZNSt3__122__compressed_pair_elemIRNS_9allocatorIP4NodeEELi1ELb0EE5__getB7v160006Ev, symObjAddr: 0x26F4, symBinAddr: 0x100006534, symSize: 0x18 }
  - { offsetInCU: 0xC3C0, offset: 0xC3C0, size: 0x8, addend: 0x0, symName: __ZNSt3__117__compressed_pairIPP4NodeRNS_9allocatorIS2_EEE5firstB7v160006Ev, symObjAddr: 0x270C, symBinAddr: 0x10000654C, symSize: 0x24 }
  - { offsetInCU: 0xC3E5, offset: 0xC3E5, size: 0x8, addend: 0x0, symName: __ZNSt3__116reverse_iteratorIPP4NodeEC1B7v160006ES3_, symObjAddr: 0x27A8, symBinAddr: 0x1000065E8, symSize: 0x34 }
  - { offsetInCU: 0xC41C, offset: 0xC41C, size: 0x8, addend: 0x0, symName: __ZNKSt3__116reverse_iteratorIPP4NodeE4baseB7v160006Ev, symObjAddr: 0x27DC, symBinAddr: 0x10000661C, symSize: 0x18 }
  - { offsetInCU: 0xC441, offset: 0xC441, size: 0x8, addend: 0x0, symName: __ZNKSt3__16vectorIP4NodeNS_9allocatorIS2_EEE14__annotate_newB7v160006Em, symObjAddr: 0x2830, symBinAddr: 0x100006670, symSize: 0xAC }
  - { offsetInCU: 0xC498, offset: 0xC498, size: 0x8, addend: 0x0, symName: __ZNKSt3__111__move_loopINS_17_ClassicAlgPolicyEEclB7v160006INS_16reverse_iteratorIPP4NodeEES8_S8_EENS_4pairIT_T1_EESA_T0_SB_, symObjAddr: 0x2BCC, symBinAddr: 0x100006A0C, symSize: 0xA0 }
  - { offsetInCU: 0xC502, offset: 0xC502, size: 0x8, addend: 0x0, symName: __ZNSt3__18_IterOpsINS_17_ClassicAlgPolicyEE11__iter_moveB7v160006IRNS_16reverse_iteratorIPP4NodeEEEENS_9enable_ifIXsr12is_referenceIDTdeclsr3stdE7declvalIRT_EEEEE5valueEDTclsr3stdE4movedeclsr3stdE7declvalISC_EEEEE4typeEOSB_, symObjAddr: 0x2E00, symBinAddr: 0x100006C40, symSize: 0x28 }
  - { offsetInCU: 0xC52E, offset: 0xC52E, size: 0x8, addend: 0x0, symName: __ZNKSt3__116reverse_iteratorIPP4NodeEdeB7v160006Ev, symObjAddr: 0x2E28, symBinAddr: 0x100006C68, symSize: 0x28 }
  - { offsetInCU: 0xC561, offset: 0xC561, size: 0x8, addend: 0x0, symName: __ZNSt3__116reverse_iteratorIPP4NodeEppB7v160006Ev, symObjAddr: 0x2E50, symBinAddr: 0x100006C90, symSize: 0x20 }
  - { offsetInCU: 0xC586, offset: 0xC586, size: 0x8, addend: 0x0, symName: __ZNSt3__18_IterOpsINS_17_ClassicAlgPolicyEE25__validate_iter_referenceB7v160006IRNS_16reverse_iteratorIPP4NodeEEEEvv, symObjAddr: 0x2E70, symBinAddr: 0x100006CB0, symSize: 0x4 }
  - { offsetInCU: 0xC5A4, offset: 0xC5A4, size: 0x8, addend: 0x0, symName: __ZNSt3__118__unwrap_iter_implINS_16reverse_iteratorIPP4NodeEELb0EE8__unwrapB7v160006ES5_, symObjAddr: 0x2E74, symBinAddr: 0x100006CB4, symSize: 0x24 }
  - { offsetInCU: 0xC5CC, offset: 0xC5CC, size: 0x8, addend: 0x0, symName: __ZNSt3__14pairINS_16reverse_iteratorIPP4NodeEES5_EC1B7v160006IS5_S5_LPv0EEEOT_OT0_, symObjAddr: 0x2E98, symBinAddr: 0x100006CD8, symSize: 0x3C }
  - { offsetInCU: 0xC629, offset: 0xC629, size: 0x8, addend: 0x0, symName: __ZNSt3__14pairINS_16reverse_iteratorIPP4NodeEES5_EC2B7v160006IS5_S5_LPv0EEEOT_OT0_, symObjAddr: 0x2ED4, symBinAddr: 0x100006D14, symSize: 0x34 }
  - { offsetInCU: 0xC686, offset: 0xC686, size: 0x8, addend: 0x0, symName: __ZNSt3__118__unwrap_iter_implINS_16reverse_iteratorIPP4NodeEELb0EE8__rewrapB7v160006ES5_S5_, symObjAddr: 0x2F08, symBinAddr: 0x100006D48, symSize: 0x2C }
  - { offsetInCU: 0xC6B4, offset: 0xC6B4, size: 0x8, addend: 0x0, symName: __ZNSt3__116reverse_iteratorIPP4NodeEC2B7v160006ES3_, symObjAddr: 0x2F34, symBinAddr: 0x100006D74, symSize: 0x28 }
  - { offsetInCU: 0xC6EB, offset: 0xC6EB, size: 0x8, addend: 0x0, symName: __ZNSt3__114__split_bufferIP4NodeRNS_9allocatorIS2_EEED2Ev, symObjAddr: 0x2F5C, symBinAddr: 0x100006D9C, symSize: 0x8C }
  - { offsetInCU: 0xC716, offset: 0xC716, size: 0x8, addend: 0x0, symName: __ZNSt3__114__split_bufferIP4NodeRNS_9allocatorIS2_EEE5clearB7v160006Ev, symObjAddr: 0x2FE8, symBinAddr: 0x100006E28, symSize: 0x28 }
  - { offsetInCU: 0xC73B, offset: 0xC73B, size: 0x8, addend: 0x0, symName: __ZNKSt3__114__split_bufferIP4NodeRNS_9allocatorIS2_EEE8capacityB7v160006Ev, symObjAddr: 0x3010, symBinAddr: 0x100006E50, symSize: 0x40 }
  - { offsetInCU: 0xC760, offset: 0xC760, size: 0x8, addend: 0x0, symName: __ZNSt3__114__split_bufferIP4NodeRNS_9allocatorIS2_EEE17__destruct_at_endB7v160006EPS2_, symObjAddr: 0x3050, symBinAddr: 0x100006E90, symSize: 0x2C }
  - { offsetInCU: 0xC792, offset: 0xC792, size: 0x8, addend: 0x0, symName: __ZNSt3__114__split_bufferIP4NodeRNS_9allocatorIS2_EEE17__destruct_at_endB7v160006EPS2_NS_17integral_constantIbLb0EEE, symObjAddr: 0x307C, symBinAddr: 0x100006EBC, symSize: 0x80 }
  - { offsetInCU: 0xC7D2, offset: 0xC7D2, size: 0x8, addend: 0x0, symName: __ZNKSt3__114__split_bufferIP4NodeRNS_9allocatorIS2_EEE9__end_capB7v160006Ev, symObjAddr: 0x30FC, symBinAddr: 0x100006F3C, symSize: 0x28 }
  - { offsetInCU: 0xC7F7, offset: 0xC7F7, size: 0x8, addend: 0x0, symName: __ZNKSt3__117__compressed_pairIPP4NodeRNS_9allocatorIS2_EEE5firstB7v160006Ev, symObjAddr: 0x3124, symBinAddr: 0x100006F64, symSize: 0x24 }
  - { offsetInCU: 0xC81C, offset: 0xC81C, size: 0x8, addend: 0x0, symName: __ZNSt3__16vectorIP4NodeNS_9allocatorIS2_EEE11__make_iterB7v160006EPS2_, symObjAddr: 0x3148, symBinAddr: 0x100006F88, symSize: 0x34 }
  - { offsetInCU: 0xC850, offset: 0xC850, size: 0x8, addend: 0x0, symName: __ZNSt3__111__wrap_iterIPP4NodeEC1B7v160006EPKvS3_, symObjAddr: 0x317C, symBinAddr: 0x100006FBC, symSize: 0x3C }
  - { offsetInCU: 0xC895, offset: 0xC895, size: 0x8, addend: 0x0, symName: __ZNSt3__111__wrap_iterIPP4NodeEC2B7v160006EPKvS3_, symObjAddr: 0x31B8, symBinAddr: 0x100006FF8, symSize: 0x24 }
  - { offsetInCU: 0x534F, offset: 0x11CE1, size: 0x8, addend: 0x0, symName: __ZNSt3__124__put_character_sequenceB7v160006IcNS_11char_traitsIcEEEERNS_13basic_ostreamIT_T0_EES7_PKS4_m, symObjAddr: 0x5CAC, symBinAddr: 0x10000AB50, symSize: 0x1EC }
  - { offsetInCU: 0x9754, offset: 0x160E6, size: 0x8, addend: 0x0, symName: __ZNSt3__1lsB7v160006INS_11char_traitsIcEEEERNS_13basic_ostreamIcT_EES6_PKc, symObjAddr: 0x724, symBinAddr: 0x100007450, symSize: 0x48 }
  - { offsetInCU: 0x979A, offset: 0x1612C, size: 0x8, addend: 0x0, symName: __ZNSt3__14endlB7v160006IcNS_11char_traitsIcEEEERNS_13basic_ostreamIT_T0_EES7_, symObjAddr: 0x798, symBinAddr: 0x1000074C4, symSize: 0x58 }
  - { offsetInCU: 0x97DA, offset: 0x1616C, size: 0x8, addend: 0x0, symName: __ZNSt3__1neB7v160006ERKNS_16__deque_iteratorIP4NodePS2_RS2_PS3_lLl512EEES8_, symObjAddr: 0xED4, symBinAddr: 0x1000079B4, symSize: 0x34 }
  - { offsetInCU: 0x9817, offset: 0x161A9, size: 0x8, addend: 0x0, symName: __ZNSt3__1eqB7v160006ERKNS_16__deque_iteratorIP4NodePS2_RS2_PS3_lLl512EEES8_, symObjAddr: 0x1174, symBinAddr: 0x100007C1C, symSize: 0x30 }
  - { offsetInCU: 0x9855, offset: 0x161E7, size: 0x8, addend: 0x0, symName: __ZNSt3__112__to_addressB7v160006IPP4NodeEEPT_S5_, symObjAddr: 0x1558, symBinAddr: 0x100007F1C, symSize: 0x14 }
  - { offsetInCU: 0x9C30, offset: 0x165C2, size: 0x8, addend: 0x0, symName: __ZNSt3__14swapB7v160006IPPP4NodeEENS_9enable_ifIXaasr21is_move_constructibleIT_EE5valuesr18is_move_assignableIS6_EE5valueEvE4typeERS6_S9_, symObjAddr: 0x2FE8, symBinAddr: 0x1000094D0, symSize: 0x3C }
  - { offsetInCU: 0x9C81, offset: 0x16613, size: 0x8, addend: 0x0, symName: __ZNSt3__14moveB7v160006IPPP4NodeS4_EET0_T_S6_S5_, symObjAddr: 0x30CC, symBinAddr: 0x1000095B4, symSize: 0x40 }
  - { offsetInCU: 0x9CDB, offset: 0x1666D, size: 0x8, addend: 0x0, symName: __ZNSt3__16__moveB7v160006INS_17_ClassicAlgPolicyEPPP4NodeS5_S5_EENS_4pairIT0_T2_EES7_T1_S8_, symObjAddr: 0x3270, symBinAddr: 0x100009758, symSize: 0x44 }
  - { offsetInCU: 0x9D47, offset: 0x166D9, size: 0x8, addend: 0x0, symName: __ZNSt3__123__dispatch_copy_or_moveB7v160006INS_17_ClassicAlgPolicyENS_11__move_loopIS1_EENS_14__move_trivialEPPP4NodeS8_S8_EENS_4pairIT2_T4_EESA_T3_SB_, symObjAddr: 0x32B4, symBinAddr: 0x10000979C, symSize: 0x44 }
  - { offsetInCU: 0x9DC5, offset: 0x16757, size: 0x8, addend: 0x0, symName: __ZNSt3__121__unwrap_and_dispatchB7v160006INS_10__overloadINS_11__move_loopINS_17_ClassicAlgPolicyEEENS_14__move_trivialEEEPPP4NodeSA_SA_Li0EEENS_4pairIT0_T2_EESC_T1_SD_, symObjAddr: 0x32F8, symBinAddr: 0x1000097E0, symSize: 0xB4 }
  - { offsetInCU: 0x9E53, offset: 0x167E5, size: 0x8, addend: 0x0, symName: __ZNSt3__114__unwrap_rangeB7v160006IPPP4NodeS4_EENS_4pairIT0_S6_EET_S8_, symObjAddr: 0x33AC, symBinAddr: 0x100009894, symSize: 0x60 }
  - { offsetInCU: 0xA017, offset: 0x169A9, size: 0x8, addend: 0x0, symName: __ZNSt3__113__unwrap_iterB7v160006IPPP4NodeNS_18__unwrap_iter_implIS4_Lb1EEELi0EEEDTclsrT0_8__unwrapclsr3stdE7declvalIT_EEEES8_, symObjAddr: 0x3454, symBinAddr: 0x10000993C, symSize: 0x24 }
  - { offsetInCU: 0xA05B, offset: 0x169ED, size: 0x8, addend: 0x0, symName: __ZNSt3__19make_pairB7v160006IPPP4NodeS4_EENS_4pairINS_18__unwrap_ref_decayIT_E4typeENS6_IT0_E4typeEEEOS7_OSA_, symObjAddr: 0x3478, symBinAddr: 0x100009960, symSize: 0x38 }
  - { offsetInCU: 0xA0AA, offset: 0x16A3C, size: 0x8, addend: 0x0, symName: __ZNSt3__114__rewrap_rangeB7v160006IPPP4NodeS4_EET_S5_T0_, symObjAddr: 0x34B0, symBinAddr: 0x100009998, symSize: 0x2C }
  - { offsetInCU: 0xA0F6, offset: 0x16A88, size: 0x8, addend: 0x0, symName: __ZNSt3__113__rewrap_iterB7v160006IPPP4NodeS4_NS_18__unwrap_iter_implIS4_Lb1EEEEET_S7_T0_, symObjAddr: 0x34DC, symBinAddr: 0x1000099C4, symSize: 0x3C }
  - { offsetInCU: 0xA14B, offset: 0x16ADD, size: 0x8, addend: 0x0, symName: __ZNSt3__119__copy_trivial_implB7v160006IPP4NodeS3_EENS_4pairIPT_PT0_EES6_S6_S8_, symObjAddr: 0x3518, symBinAddr: 0x100009A00, symSize: 0x84 }
  - { offsetInCU: 0xA1B3, offset: 0x16B45, size: 0x8, addend: 0x0, symName: __ZNSt3__19make_pairB7v160006IRPPP4NodeS4_EENS_4pairINS_18__unwrap_ref_decayIT_E4typeENS7_IT0_E4typeEEEOS8_OSB_, symObjAddr: 0x359C, symBinAddr: 0x100009A84, symSize: 0x38 }
  - { offsetInCU: 0xA255, offset: 0x16BE7, size: 0x8, addend: 0x0, symName: __ZNSt3__18distanceB7v160006INS_13move_iteratorIPPP4NodeEEEENS_15iterator_traitsIT_E15difference_typeES8_S8_, symObjAddr: 0x3728, symBinAddr: 0x100009C10, symSize: 0x3C }
  - { offsetInCU: 0xA298, offset: 0x16C2A, size: 0x8, addend: 0x0, symName: __ZNSt3__110__distanceB7v160006INS_13move_iteratorIPPP4NodeEEEENS_15iterator_traitsIT_E15difference_typeES8_S8_NS_26random_access_iterator_tagE, symObjAddr: 0x3860, symBinAddr: 0x100009D48, symSize: 0x30 }
  - { offsetInCU: 0xA2E6, offset: 0x16C78, size: 0x8, addend: 0x0, symName: __ZNSt3__1miB7v160006IPPP4NodeS4_EEDTmicldtfp_4baseEcldtfp0_4baseEERKNS_13move_iteratorIT_EERKNS6_IT0_EE, symObjAddr: 0x3890, symBinAddr: 0x100009D78, symSize: 0x48 }
  - { offsetInCU: 0xA335, offset: 0x16CC7, size: 0x8, addend: 0x0, symName: __ZNSt3__113move_backwardB7v160006IPPP4NodeS4_EET0_T_S6_S5_, symObjAddr: 0x3B14, symBinAddr: 0x100009EEC, symSize: 0x40 }
  - { offsetInCU: 0xA38F, offset: 0x16D21, size: 0x8, addend: 0x0, symName: __ZNSt3__115__move_backwardB7v160006INS_17_ClassicAlgPolicyEPPP4NodeS5_S5_EENS_4pairIT0_T2_EES7_T1_S8_, symObjAddr: 0x3B54, symBinAddr: 0x100009F2C, symSize: 0x44 }
  - { offsetInCU: 0xA3FB, offset: 0x16D8D, size: 0x8, addend: 0x0, symName: __ZNSt3__123__dispatch_copy_or_moveB7v160006INS_17_ClassicAlgPolicyENS_20__move_backward_loopIS1_EENS_23__move_backward_trivialEPPP4NodeS8_S8_EENS_4pairIT2_T4_EESA_T3_SB_, symObjAddr: 0x3B98, symBinAddr: 0x100009F70, symSize: 0x44 }
  - { offsetInCU: 0xA479, offset: 0x16E0B, size: 0x8, addend: 0x0, symName: __ZNSt3__121__unwrap_and_dispatchB7v160006INS_10__overloadINS_20__move_backward_loopINS_17_ClassicAlgPolicyEEENS_23__move_backward_trivialEEEPPP4NodeSA_SA_Li0EEENS_4pairIT0_T2_EESC_T1_SD_, symObjAddr: 0x3BDC, symBinAddr: 0x100009FB4, symSize: 0xB4 }
  - { offsetInCU: 0xA54D, offset: 0x16EDF, size: 0x8, addend: 0x0, symName: __ZNSt3__128__copy_backward_trivial_implB7v160006IPP4NodeS3_EENS_4pairIPT_PT0_EES6_S6_S8_, symObjAddr: 0x3CD8, symBinAddr: 0x10000A0B0, symSize: 0x94 }
  - { offsetInCU: 0xA5B5, offset: 0x16F47, size: 0x8, addend: 0x0, symName: __ZNSt3__19make_pairB7v160006IRPPP4NodeS5_EENS_4pairINS_18__unwrap_ref_decayIT_E4typeENS7_IT0_E4typeEEEOS8_OSB_, symObjAddr: 0x3D6C, symBinAddr: 0x10000A144, symSize: 0x38 }
  - { offsetInCU: 0xA604, offset: 0x16F96, size: 0x8, addend: 0x0, symName: __ZNSt3__119__allocate_at_leastB7v160006INS_9allocatorIPP4NodeEEEENS_19__allocation_resultINS_16allocator_traitsIT_E7pointerEEERS8_m, symObjAddr: 0x3FAC, symBinAddr: 0x10000A2FC, symSize: 0x40 }
  - { offsetInCU: 0xA647, offset: 0x16FD9, size: 0x8, addend: 0x0, symName: __ZNSt3__116__pad_and_outputB7v160006IcNS_11char_traitsIcEEEENS_19ostreambuf_iteratorIT_T0_EES6_PKS4_S8_S8_RNS_8ios_baseES4_, symObjAddr: 0x5EE8, symBinAddr: 0x10000AD8C, symSize: 0x240 }
  - { offsetInCU: 0xA71B, offset: 0x170AD, size: 0x8, addend: 0x0, symName: __ZNSt3__119__debug_db_insert_cB7v160006INS_12basic_stringIcNS_11char_traitsIcEENS_9allocatorIcEEEEEEvPT_, symObjAddr: 0x639C, symBinAddr: 0x10000B240, symSize: 0x10 }
  - { offsetInCU: 0xA74C, offset: 0x170DE, size: 0x8, addend: 0x0, symName: __ZNSt3__112__to_addressB7v160006IKcEEPT_S3_, symObjAddr: 0x6468, symBinAddr: 0x10000B30C, symSize: 0x14 }
  - { offsetInCU: 0xA7B4, offset: 0x17146, size: 0x8, addend: 0x0, symName: __ZNSt3__19use_facetB7v160006INS_5ctypeIcEEEERKT_RKNS_6localeE, symObjAddr: 0x66E8, symBinAddr: 0x10000B58C, symSize: 0x2C }
  - { offsetInCU: 0xAC8E, offset: 0x17620, size: 0x8, addend: 0x0, symName: __ZNSt3__118__constexpr_strlenB7v160006EPKc, symObjAddr: 0x6780, symBinAddr: 0x10000B624, symSize: 0x24 }
  - { offsetInCU: 0xD4DC, offset: 0x19E6E, size: 0x8, addend: 0x0, symName: __ZN2Ai3BFSEP4NodeS1_, symObjAddr: 0x0, symBinAddr: 0x10000701C, symSize: 0x36C }
  - { offsetInCU: 0xD672, offset: 0x1A004, size: 0x8, addend: 0x0, symName: __ZNSt3__15queueIP4NodeNS_5dequeIS2_NS_9allocatorIS2_EEEEEC1B7v160006Ev, symObjAddr: 0x588, symBinAddr: 0x100007388, symSize: 0x2C }
  - { offsetInCU: 0xD69B, offset: 0x1A02D, size: 0x8, addend: 0x0, symName: __ZNSt3__15queueIP4NodeNS_5dequeIS2_NS_9allocatorIS2_EEEEE4pushB7v160006ERKS2_, symObjAddr: 0x5B4, symBinAddr: 0x1000073B4, symSize: 0x2C }
  - { offsetInCU: 0xD6CF, offset: 0x1A061, size: 0x8, addend: 0x0, symName: __ZNKSt3__15queueIP4NodeNS_5dequeIS2_NS_9allocatorIS2_EEEEE5emptyB7v160006Ev, symObjAddr: 0x5E0, symBinAddr: 0x1000073E0, symSize: 0x28 }
  - { offsetInCU: 0xD6F4, offset: 0x1A086, size: 0x8, addend: 0x0, symName: __ZNSt3__15queueIP4NodeNS_5dequeIS2_NS_9allocatorIS2_EEEEE5frontB7v160006Ev, symObjAddr: 0x608, symBinAddr: 0x100007408, symSize: 0x24 }
  - { offsetInCU: 0xD719, offset: 0x1A0AB, size: 0x8, addend: 0x0, symName: __ZNSt3__15queueIP4NodeNS_5dequeIS2_NS_9allocatorIS2_EEEEE3popB7v160006Ev, symObjAddr: 0x62C, symBinAddr: 0x10000742C, symSize: 0x24 }
  - { offsetInCU: 0xD73E, offset: 0x1A0D0, size: 0x8, addend: 0x0, symName: __ZNSt3__113basic_ostreamIcNS_11char_traitsIcEEElsB7v160006EPFRS3_S4_E, symObjAddr: 0x76C, symBinAddr: 0x100007498, symSize: 0x2C }
  - { offsetInCU: 0xD771, offset: 0x1A103, size: 0x8, addend: 0x0, symName: __ZNSt3__15queueIP4NodeNS_5dequeIS2_NS_9allocatorIS2_EEEEED1Ev, symObjAddr: 0x8E8, symBinAddr: 0x10000751C, symSize: 0x2C }
  - { offsetInCU: 0xD79D, offset: 0x1A12F, size: 0x8, addend: 0x0, symName: __ZNSt3__15queueIP4NodeNS_5dequeIS2_NS_9allocatorIS2_EEEEED2Ev, symObjAddr: 0xA34, symBinAddr: 0x100007548, symSize: 0x2C }
  - { offsetInCU: 0xD7C9, offset: 0x1A15B, size: 0x8, addend: 0x0, symName: __ZNSt3__15dequeIP4NodeNS_9allocatorIS2_EEED1B7v160006Ev, symObjAddr: 0xA60, symBinAddr: 0x100007574, symSize: 0x2C }
  - { offsetInCU: 0xD7F2, offset: 0x1A184, size: 0x8, addend: 0x0, symName: __ZNSt3__15dequeIP4NodeNS_9allocatorIS2_EEED2B7v160006Ev, symObjAddr: 0xA8C, symBinAddr: 0x1000075A0, symSize: 0x9C }
  - { offsetInCU: 0xD848, offset: 0x1A1DA, size: 0x8, addend: 0x0, symName: __ZNSt3__15dequeIP4NodeNS_9allocatorIS2_EEE5clearEv, symObjAddr: 0xB28, symBinAddr: 0x10000763C, symSize: 0x180 }
  - { offsetInCU: 0xD8A6, offset: 0x1A238, size: 0x8, addend: 0x0, symName: __ZNSt3__114__split_bufferIPP4NodeNS_9allocatorIS3_EEE5beginB7v160006Ev, symObjAddr: 0xCA8, symBinAddr: 0x1000077BC, symSize: 0x18 }
  - { offsetInCU: 0xD8CB, offset: 0x1A25D, size: 0x8, addend: 0x0, symName: __ZNSt3__114__split_bufferIPP4NodeNS_9allocatorIS3_EEE3endB7v160006Ev, symObjAddr: 0xCC0, symBinAddr: 0x1000077D4, symSize: 0x18 }
  - { offsetInCU: 0xD8F0, offset: 0x1A282, size: 0x8, addend: 0x0, symName: __ZNSt3__15dequeIP4NodeNS_9allocatorIS2_EEE7__allocB7v160006Ev, symObjAddr: 0xD0C, symBinAddr: 0x1000077EC, symSize: 0x28 }
  - { offsetInCU: 0xD915, offset: 0x1A2A7, size: 0x8, addend: 0x0, symName: __ZNSt3__114__split_bufferIPP4NodeNS_9allocatorIS3_EEED1Ev, symObjAddr: 0xD34, symBinAddr: 0x100007814, symSize: 0x2C }
  - { offsetInCU: 0xD940, offset: 0x1A2D2, size: 0x8, addend: 0x0, symName: __ZNSt3__15dequeIP4NodeNS_9allocatorIS2_EEE5beginB7v160006Ev, symObjAddr: 0xD60, symBinAddr: 0x100007840, symSize: 0xB8 }
  - { offsetInCU: 0xD975, offset: 0x1A307, size: 0x8, addend: 0x0, symName: __ZNSt3__15dequeIP4NodeNS_9allocatorIS2_EEE3endB7v160006Ev, symObjAddr: 0xE18, symBinAddr: 0x1000078F8, symSize: 0xBC }
  - { offsetInCU: 0xD9BA, offset: 0x1A34C, size: 0x8, addend: 0x0, symName: __ZNKSt3__116__deque_iteratorIP4NodePS2_RS2_PS3_lLl512EEdeB7v160006Ev, symObjAddr: 0xF40, symBinAddr: 0x1000079E8, symSize: 0x18 }
  - { offsetInCU: 0xD9DF, offset: 0x1A371, size: 0x8, addend: 0x0, symName: __ZNSt3__116__deque_iteratorIP4NodePS2_RS2_PS3_lLl512EEppB7v160006Ev, symObjAddr: 0xF58, symBinAddr: 0x100007A00, symSize: 0x70 }
  - { offsetInCU: 0xDA04, offset: 0x1A396, size: 0x8, addend: 0x0, symName: __ZNSt3__15dequeIP4NodeNS_9allocatorIS2_EEE6__sizeB7v160006Ev, symObjAddr: 0xFC8, symBinAddr: 0x100007A70, symSize: 0x28 }
  - { offsetInCU: 0xDA29, offset: 0x1A3BB, size: 0x8, addend: 0x0, symName: __ZNKSt3__114__split_bufferIPP4NodeNS_9allocatorIS3_EEE4sizeB7v160006Ev, symObjAddr: 0xFF0, symBinAddr: 0x100007A98, symSize: 0x28 }
  - { offsetInCU: 0xDA4E, offset: 0x1A3E0, size: 0x8, addend: 0x0, symName: __ZNSt3__114__split_bufferIPP4NodeNS_9allocatorIS3_EEE5frontB7v160006Ev, symObjAddr: 0x1018, symBinAddr: 0x100007AC0, symSize: 0x18 }
  - { offsetInCU: 0xDA73, offset: 0x1A405, size: 0x8, addend: 0x0, symName: __ZNSt3__114__split_bufferIPP4NodeNS_9allocatorIS3_EEE9pop_frontB7v160006Ev, symObjAddr: 0x1030, symBinAddr: 0x100007AD8, symSize: 0x2C }
  - { offsetInCU: 0xDA98, offset: 0x1A42A, size: 0x8, addend: 0x0, symName: __ZNKSt3__114__split_bufferIPP4NodeNS_9allocatorIS3_EEE5emptyB7v160006Ev, symObjAddr: 0x105C, symBinAddr: 0x100007B04, symSize: 0x28 }
  - { offsetInCU: 0xDABD, offset: 0x1A44F, size: 0x8, addend: 0x0, symName: __ZNSt3__116__deque_iteratorIP4NodePS2_RS2_PS3_lLl512EEC1B7v160006ES5_S3_, symObjAddr: 0x1084, symBinAddr: 0x100007B2C, symSize: 0x3C }
  - { offsetInCU: 0xDB04, offset: 0x1A496, size: 0x8, addend: 0x0, symName: __ZNSt3__116__deque_iteratorIP4NodePS2_RS2_PS3_lLl512EEC2B7v160006ES5_S3_, symObjAddr: 0x10C0, symBinAddr: 0x100007B68, symSize: 0x2C }
  - { offsetInCU: 0xDB4B, offset: 0x1A4DD, size: 0x8, addend: 0x0, symName: __ZNKSt3__15dequeIP4NodeNS_9allocatorIS2_EEE4sizeB7v160006Ev, symObjAddr: 0x10EC, symBinAddr: 0x100007B94, symSize: 0x28 }
  - { offsetInCU: 0xDB70, offset: 0x1A502, size: 0x8, addend: 0x0, symName: __ZNKSt3__15dequeIP4NodeNS_9allocatorIS2_EEE6__sizeB7v160006Ev, symObjAddr: 0x1114, symBinAddr: 0x100007BBC, symSize: 0x28 }
  - { offsetInCU: 0xDB95, offset: 0x1A527, size: 0x8, addend: 0x0, symName: __ZNKSt3__117__compressed_pairImNS_9allocatorIP4NodeEEE5firstB7v160006Ev, symObjAddr: 0x113C, symBinAddr: 0x100007BE4, symSize: 0x24 }
  - { offsetInCU: 0xDBBA, offset: 0x1A54C, size: 0x8, addend: 0x0, symName: __ZNKSt3__122__compressed_pair_elemImLi0ELb0EE5__getB7v160006Ev, symObjAddr: 0x1160, symBinAddr: 0x100007C08, symSize: 0x14 }
  - { offsetInCU: 0xDBDF, offset: 0x1A571, size: 0x8, addend: 0x0, symName: __ZNSt3__117__compressed_pairImNS_9allocatorIP4NodeEEE5firstB7v160006Ev, symObjAddr: 0x11B8, symBinAddr: 0x100007C4C, symSize: 0x24 }
  - { offsetInCU: 0xDC04, offset: 0x1A596, size: 0x8, addend: 0x0, symName: __ZNSt3__122__compressed_pair_elemImLi0ELb0EE5__getB7v160006Ev, symObjAddr: 0x11DC, symBinAddr: 0x100007C70, symSize: 0x14 }
  - { offsetInCU: 0xDC29, offset: 0x1A5BB, size: 0x8, addend: 0x0, symName: __ZNSt3__114__split_bufferIPP4NodeNS_9allocatorIS3_EEE19__destruct_at_beginB7v160006EPS3_, symObjAddr: 0x11F0, symBinAddr: 0x100007C84, symSize: 0x2C }
  - { offsetInCU: 0xDC5C, offset: 0x1A5EE, size: 0x8, addend: 0x0, symName: __ZNSt3__114__split_bufferIPP4NodeNS_9allocatorIS3_EEE19__destruct_at_beginEPS3_NS_17integral_constantIbLb1EEE, symObjAddr: 0x121C, symBinAddr: 0x100007CB0, symSize: 0x20 }
  - { offsetInCU: 0xDC9C, offset: 0x1A62E, size: 0x8, addend: 0x0, symName: __ZNSt3__117__compressed_pairImNS_9allocatorIP4NodeEEE6secondB7v160006Ev, symObjAddr: 0x12F8, symBinAddr: 0x100007CD0, symSize: 0x24 }
  - { offsetInCU: 0xDCC1, offset: 0x1A653, size: 0x8, addend: 0x0, symName: __ZNSt3__114__split_bufferIPP4NodeNS_9allocatorIS3_EEED2Ev, symObjAddr: 0x1330, symBinAddr: 0x100007CF4, symSize: 0x8C }
  - { offsetInCU: 0xDCEC, offset: 0x1A67E, size: 0x8, addend: 0x0, symName: __ZNSt3__114__split_bufferIPP4NodeNS_9allocatorIS3_EEE5clearB7v160006Ev, symObjAddr: 0x13BC, symBinAddr: 0x100007D80, symSize: 0x28 }
  - { offsetInCU: 0xDD11, offset: 0x1A6A3, size: 0x8, addend: 0x0, symName: __ZNSt3__116allocator_traitsINS_9allocatorIPP4NodeEEE10deallocateB7v160006ERS5_PS4_m, symObjAddr: 0x13E4, symBinAddr: 0x100007DA8, symSize: 0x34 }
  - { offsetInCU: 0xDD53, offset: 0x1A6E5, size: 0x8, addend: 0x0, symName: __ZNSt3__114__split_bufferIPP4NodeNS_9allocatorIS3_EEE7__allocB7v160006Ev, symObjAddr: 0x1418, symBinAddr: 0x100007DDC, symSize: 0x28 }
  - { offsetInCU: 0xDD78, offset: 0x1A70A, size: 0x8, addend: 0x0, symName: __ZNKSt3__114__split_bufferIPP4NodeNS_9allocatorIS3_EEE8capacityB7v160006Ev, symObjAddr: 0x1440, symBinAddr: 0x100007E04, symSize: 0x40 }
  - { offsetInCU: 0xDD9D, offset: 0x1A72F, size: 0x8, addend: 0x0, symName: __ZNSt3__114__split_bufferIPP4NodeNS_9allocatorIS3_EEE17__destruct_at_endB7v160006EPS3_, symObjAddr: 0x1480, symBinAddr: 0x100007E44, symSize: 0x2C }
  - { offsetInCU: 0xDDCF, offset: 0x1A761, size: 0x8, addend: 0x0, symName: __ZNSt3__114__split_bufferIPP4NodeNS_9allocatorIS3_EEE17__destruct_at_endB7v160006EPS3_NS_17integral_constantIbLb0EEE, symObjAddr: 0x14AC, symBinAddr: 0x100007E70, symSize: 0x80 }
  - { offsetInCU: 0xDE0F, offset: 0x1A7A1, size: 0x8, addend: 0x0, symName: __ZNSt3__116allocator_traitsINS_9allocatorIPP4NodeEEE7destroyB7v160006IS4_vEEvRS5_PT_, symObjAddr: 0x152C, symBinAddr: 0x100007EF0, symSize: 0x2C }
  - { offsetInCU: 0xDE4C, offset: 0x1A7DE, size: 0x8, addend: 0x0, symName: __ZNSt3__19allocatorIPP4NodeE7destroyB7v160006EPS3_, symObjAddr: 0x156C, symBinAddr: 0x100007F30, symSize: 0x14 }
  - { offsetInCU: 0xDE7F, offset: 0x1A811, size: 0x8, addend: 0x0, symName: __ZNSt3__19allocatorIPP4NodeE10deallocateB7v160006EPS3_m, symObjAddr: 0x1580, symBinAddr: 0x100007F44, symSize: 0x40 }
  - { offsetInCU: 0xDEC0, offset: 0x1A852, size: 0x8, addend: 0x0, symName: __ZNSt3__117__compressed_pairIPPP4NodeNS_9allocatorIS3_EEE6secondB7v160006Ev, symObjAddr: 0x15C0, symBinAddr: 0x100007F84, symSize: 0x24 }
  - { offsetInCU: 0xDEE5, offset: 0x1A877, size: 0x8, addend: 0x0, symName: __ZNSt3__122__compressed_pair_elemINS_9allocatorIPP4NodeEELi1ELb1EE5__getB7v160006Ev, symObjAddr: 0x15E4, symBinAddr: 0x100007FA8, symSize: 0x14 }
  - { offsetInCU: 0xDF0A, offset: 0x1A89C, size: 0x8, addend: 0x0, symName: __ZNKSt3__114__split_bufferIPP4NodeNS_9allocatorIS3_EEE9__end_capB7v160006Ev, symObjAddr: 0x15F8, symBinAddr: 0x100007FBC, symSize: 0x28 }
  - { offsetInCU: 0xDF2F, offset: 0x1A8C1, size: 0x8, addend: 0x0, symName: __ZNKSt3__117__compressed_pairIPPP4NodeNS_9allocatorIS3_EEE5firstB7v160006Ev, symObjAddr: 0x1620, symBinAddr: 0x100007FE4, symSize: 0x24 }
  - { offsetInCU: 0xDF54, offset: 0x1A8E6, size: 0x8, addend: 0x0, symName: __ZNKSt3__122__compressed_pair_elemIPPP4NodeLi0ELb0EE5__getB7v160006Ev, symObjAddr: 0x1644, symBinAddr: 0x100008008, symSize: 0x14 }
  - { offsetInCU: 0xDF79, offset: 0x1A90B, size: 0x8, addend: 0x0, symName: __ZNSt3__15queueIP4NodeNS_5dequeIS2_NS_9allocatorIS2_EEEEEC2B7v160006Ev, symObjAddr: 0x1A68, symBinAddr: 0x10000801C, symSize: 0x2C }
  - { offsetInCU: 0xDFA2, offset: 0x1A934, size: 0x8, addend: 0x0, symName: __ZNSt3__15dequeIP4NodeNS_9allocatorIS2_EEEC1B7v160006Ev, symObjAddr: 0x1A94, symBinAddr: 0x100008048, symSize: 0x2C }
  - { offsetInCU: 0xDFCB, offset: 0x1A95D, size: 0x8, addend: 0x0, symName: __ZNSt3__15dequeIP4NodeNS_9allocatorIS2_EEEC2B7v160006Ev, symObjAddr: 0x1AC0, symBinAddr: 0x100008074, symSize: 0x50 }
  - { offsetInCU: 0xDFF4, offset: 0x1A986, size: 0x8, addend: 0x0, symName: __ZNSt3__114__split_bufferIPP4NodeNS_9allocatorIS3_EEEC1Ev, symObjAddr: 0x1B10, symBinAddr: 0x1000080C4, symSize: 0x2C }
  - { offsetInCU: 0xE029, offset: 0x1A9BB, size: 0x8, addend: 0x0, symName: __ZNSt3__117__compressed_pairImNS_9allocatorIP4NodeEEEC1B7v160006IiNS_18__default_init_tagEEEOT_OT0_, symObjAddr: 0x1B3C, symBinAddr: 0x1000080F0, symSize: 0x3C }
  - { offsetInCU: 0xE080, offset: 0x1AA12, size: 0x8, addend: 0x0, symName: __ZNSt3__114__split_bufferIPP4NodeNS_9allocatorIS3_EEEC2Ev, symObjAddr: 0x1B78, symBinAddr: 0x10000812C, symSize: 0x50 }
  - { offsetInCU: 0xE0B0, offset: 0x1AA42, size: 0x8, addend: 0x0, symName: __ZNSt3__117__compressed_pairIPPP4NodeNS_9allocatorIS3_EEEC1B7v160006IDnNS_18__default_init_tagEEEOT_OT0_, symObjAddr: 0x1BC8, symBinAddr: 0x10000817C, symSize: 0x3C }
  - { offsetInCU: 0xE107, offset: 0x1AA99, size: 0x8, addend: 0x0, symName: __ZNSt3__117__compressed_pairIPPP4NodeNS_9allocatorIS3_EEEC2B7v160006IDnNS_18__default_init_tagEEEOT_OT0_, symObjAddr: 0x1C04, symBinAddr: 0x1000081B8, symSize: 0x40 }
  - { offsetInCU: 0xE15E, offset: 0x1AAF0, size: 0x8, addend: 0x0, symName: __ZNSt3__122__compressed_pair_elemIPPP4NodeLi0ELb0EEC2B7v160006IDnvEEOT_, symObjAddr: 0x1C44, symBinAddr: 0x1000081F8, symSize: 0x1C }
  - { offsetInCU: 0xE19F, offset: 0x1AB31, size: 0x8, addend: 0x0, symName: __ZNSt3__122__compressed_pair_elemINS_9allocatorIPP4NodeEELi1ELb1EEC2B7v160006ENS_18__default_init_tagE, symObjAddr: 0x1C60, symBinAddr: 0x100008214, symSize: 0x2C }
  - { offsetInCU: 0xE1D3, offset: 0x1AB65, size: 0x8, addend: 0x0, symName: __ZNSt3__19allocatorIPP4NodeEC2B7v160006Ev, symObjAddr: 0x1C8C, symBinAddr: 0x100008240, symSize: 0x2C }
  - { offsetInCU: 0xE1FC, offset: 0x1AB8E, size: 0x8, addend: 0x0, symName: __ZNSt3__116__non_trivial_ifILb1ENS_9allocatorIPP4NodeEEEC2B7v160006Ev, symObjAddr: 0x1CB8, symBinAddr: 0x10000826C, symSize: 0x14 }
  - { offsetInCU: 0xE225, offset: 0x1ABB7, size: 0x8, addend: 0x0, symName: __ZNSt3__117__compressed_pairImNS_9allocatorIP4NodeEEEC2B7v160006IiNS_18__default_init_tagEEEOT_OT0_, symObjAddr: 0x1CCC, symBinAddr: 0x100008280, symSize: 0x40 }
  - { offsetInCU: 0xE27C, offset: 0x1AC0E, size: 0x8, addend: 0x0, symName: __ZNSt3__122__compressed_pair_elemImLi0ELb0EEC2B7v160006IivEEOT_, symObjAddr: 0x1D0C, symBinAddr: 0x1000082C0, symSize: 0x24 }
  - { offsetInCU: 0xE2BC, offset: 0x1AC4E, size: 0x8, addend: 0x0, symName: __ZNSt3__15dequeIP4NodeNS_9allocatorIS2_EEE9push_backERKS2_, symObjAddr: 0x1D9C, symBinAddr: 0x1000082E4, symSize: 0xA0 }
  - { offsetInCU: 0xE302, offset: 0x1AC94, size: 0x8, addend: 0x0, symName: __ZNKSt3__15dequeIP4NodeNS_9allocatorIS2_EEE12__back_spareB7v160006Ev, symObjAddr: 0x1E3C, symBinAddr: 0x100008384, symSize: 0x54 }
  - { offsetInCU: 0xE326, offset: 0x1ACB8, size: 0x8, addend: 0x0, symName: __ZNSt3__15dequeIP4NodeNS_9allocatorIS2_EEE19__add_back_capacityEv, symObjAddr: 0x1E90, symBinAddr: 0x1000083D8, symSize: 0x314 }
  - { offsetInCU: 0xE3E1, offset: 0x1AD73, size: 0x8, addend: 0x0, symName: __ZNKSt3__15dequeIP4NodeNS_9allocatorIS2_EEE10__capacityB7v160006Ev, symObjAddr: 0x21D8, symBinAddr: 0x1000086EC, symSize: 0x60 }
  - { offsetInCU: 0xE406, offset: 0x1AD98, size: 0x8, addend: 0x0, symName: __ZNKSt3__15dequeIP4NodeNS_9allocatorIS2_EEE13__front_spareB7v160006Ev, symObjAddr: 0x2238, symBinAddr: 0x10000874C, symSize: 0x18 }
  - { offsetInCU: 0xE42A, offset: 0x1ADBC, size: 0x8, addend: 0x0, symName: __ZNSt3__114__split_bufferIPP4NodeNS_9allocatorIS3_EEE9push_backB7v160006ERKS3_, symObjAddr: 0x2250, symBinAddr: 0x100008764, symSize: 0x260 }
  - { offsetInCU: 0xE4A5, offset: 0x1AE37, size: 0x8, addend: 0x0, symName: __ZNKSt3__114__split_bufferIPP4NodeNS_9allocatorIS3_EEE12__back_spareB7v160006Ev, symObjAddr: 0x24B0, symBinAddr: 0x1000089C4, symSize: 0x40 }
  - { offsetInCU: 0xE4C9, offset: 0x1AE5B, size: 0x8, addend: 0x0, symName: __ZNSt3__114__split_bufferIPP4NodeNS_9allocatorIS3_EEE9push_backEOS3_, symObjAddr: 0x24F0, symBinAddr: 0x100008A04, symSize: 0x260 }
  - { offsetInCU: 0xE544, offset: 0x1AED6, size: 0x8, addend: 0x0, symName: __ZNSt3__116allocator_traitsINS_9allocatorIP4NodeEEE8allocateB7v160006ERS4_m, symObjAddr: 0x2750, symBinAddr: 0x100008C64, symSize: 0x2C }
  - { offsetInCU: 0xE576, offset: 0x1AF08, size: 0x8, addend: 0x0, symName: __ZNSt3__114__split_bufferIPP4NodeNS_9allocatorIS3_EEE10push_frontEOS3_, symObjAddr: 0x277C, symBinAddr: 0x100008C90, symSize: 0x25C }
  - { offsetInCU: 0xE5F1, offset: 0x1AF83, size: 0x8, addend: 0x0, symName: __ZNSt3__114__split_bufferIPP4NodeRNS_9allocatorIS3_EEEC1EmmS6_, symObjAddr: 0x2A04, symBinAddr: 0x100008EEC, symSize: 0x44 }
  - { offsetInCU: 0xE64B, offset: 0x1AFDD, size: 0x8, addend: 0x0, symName: __ZNSt3__122__allocator_destructorINS_9allocatorIP4NodeEEEC1B7v160006ERS4_m, symObjAddr: 0x2A48, symBinAddr: 0x100008F30, symSize: 0x3C }
  - { offsetInCU: 0xE6F9, offset: 0x1B08B, size: 0x8, addend: 0x0, symName: __ZNSt3__110unique_ptrIPP4NodeNS_22__allocator_destructorINS_9allocatorIS2_EEEEEC1B7v160006ILb1EvEES3_NS_16__dependent_typeINS_27__unique_ptr_deleter_sfinaeIS7_EEXT_EE20__good_rval_ref_typeE, symObjAddr: 0x2A84, symBinAddr: 0x100008F6C, symSize: 0x3C }
  - { offsetInCU: 0xE748, offset: 0x1B0DA, size: 0x8, addend: 0x0, symName: __ZNSt3__114__split_bufferIPP4NodeRNS_9allocatorIS3_EEE9push_backEOS3_, symObjAddr: 0x2AC0, symBinAddr: 0x100008FA8, symSize: 0x260 }
  - { offsetInCU: 0xE7C3, offset: 0x1B155, size: 0x8, addend: 0x0, symName: __ZNKSt3__110unique_ptrIPP4NodeNS_22__allocator_destructorINS_9allocatorIS2_EEEEE3getB7v160006Ev, symObjAddr: 0x2D20, symBinAddr: 0x100009208, symSize: 0x28 }
  - { offsetInCU: 0xE7E8, offset: 0x1B17A, size: 0x8, addend: 0x0, symName: __ZNSt3__110unique_ptrIPP4NodeNS_22__allocator_destructorINS_9allocatorIS2_EEEEE7releaseB7v160006Ev, symObjAddr: 0x2D48, symBinAddr: 0x100009230, symSize: 0x44 }
  - { offsetInCU: 0xE81C, offset: 0x1B1AE, size: 0x8, addend: 0x0, symName: __ZNSt3__114__split_bufferIPP4NodeRNS_9allocatorIS3_EEE10push_frontERKS3_, symObjAddr: 0x2D8C, symBinAddr: 0x100009274, symSize: 0x25C }
  - { offsetInCU: 0xE897, offset: 0x1B229, size: 0x8, addend: 0x0, symName: __ZNSt3__114__split_bufferIPP4NodeNS_9allocatorIS3_EEE9__end_capB7v160006Ev, symObjAddr: 0x3024, symBinAddr: 0x10000950C, symSize: 0x28 }
  - { offsetInCU: 0xE8BC, offset: 0x1B24E, size: 0x8, addend: 0x0, symName: __ZNSt3__114__split_bufferIPP4NodeRNS_9allocatorIS3_EEE9__end_capB7v160006Ev, symObjAddr: 0x304C, symBinAddr: 0x100009534, symSize: 0x28 }
  - { offsetInCU: 0xE8E1, offset: 0x1B273, size: 0x8, addend: 0x0, symName: __ZNSt3__110unique_ptrIPP4NodeNS_22__allocator_destructorINS_9allocatorIS2_EEEEED1B7v160006Ev, symObjAddr: 0x3074, symBinAddr: 0x10000955C, symSize: 0x2C }
  - { offsetInCU: 0xE90A, offset: 0x1B29C, size: 0x8, addend: 0x0, symName: __ZNSt3__114__split_bufferIPP4NodeRNS_9allocatorIS3_EEED1Ev, symObjAddr: 0x30A0, symBinAddr: 0x100009588, symSize: 0x2C }
  - { offsetInCU: 0xE934, offset: 0x1B2C6, size: 0x8, addend: 0x0, symName: __ZNSt3__114__split_bufferIPP4NodeRNS_9allocatorIS3_EEE18__construct_at_endINS_13move_iteratorIPS3_EEEENS_9enable_ifIXsr27__is_cpp17_forward_iteratorIT_EE5valueEvE4typeESD_SD_, symObjAddr: 0x310C, symBinAddr: 0x1000095F4, symSize: 0xFC }
  - { offsetInCU: 0xE990, offset: 0x1B322, size: 0x8, addend: 0x0, symName: __ZNSt3__113move_iteratorIPPP4NodeEC1B7v160006ES4_, symObjAddr: 0x3208, symBinAddr: 0x1000096F0, symSize: 0x34 }
  - { offsetInCU: 0xE9C7, offset: 0x1B359, size: 0x8, addend: 0x0, symName: __ZNSt3__116allocator_traitsINS_9allocatorIPP4NodeEEE9constructB7v160006IS4_JRKS4_EvEEvRS5_PT_DpOT0_, symObjAddr: 0x323C, symBinAddr: 0x100009724, symSize: 0x34 }
  - { offsetInCU: 0xEA41, offset: 0x1B3D3, size: 0x8, addend: 0x0, symName: __ZNKSt3__114__move_trivialclB7v160006IPP4NodeS4_Li0EEENS_4pairIPT_PT0_EES7_S7_S9_, symObjAddr: 0x340C, symBinAddr: 0x1000098F4, symSize: 0x48 }
  - { offsetInCU: 0xEAAD, offset: 0x1B43F, size: 0x8, addend: 0x0, symName: __ZNSt3__14pairIPPP4NodeS4_EC1B7v160006IRS4_S4_LPv0EEEOT_OT0_, symObjAddr: 0x35D4, symBinAddr: 0x100009ABC, symSize: 0x3C }
  - { offsetInCU: 0xEB0A, offset: 0x1B49C, size: 0x8, addend: 0x0, symName: __ZNSt3__14pairIPPP4NodeS4_EC2B7v160006IRS4_S4_LPv0EEEOT_OT0_, symObjAddr: 0x3610, symBinAddr: 0x100009AF8, symSize: 0x34 }
  - { offsetInCU: 0xEB67, offset: 0x1B4F9, size: 0x8, addend: 0x0, symName: __ZNSt3__118__unwrap_iter_implIPPP4NodeLb1EE8__unwrapB7v160006ES4_, symObjAddr: 0x3644, symBinAddr: 0x100009B2C, symSize: 0x24 }
  - { offsetInCU: 0xEB8A, offset: 0x1B51C, size: 0x8, addend: 0x0, symName: __ZNSt3__14pairIPPP4NodeS4_EC1B7v160006IS4_S4_LPv0EEEOT_OT0_, symObjAddr: 0x3668, symBinAddr: 0x100009B50, symSize: 0x3C }
  - { offsetInCU: 0xEBE7, offset: 0x1B579, size: 0x8, addend: 0x0, symName: __ZNSt3__14pairIPPP4NodeS4_EC2B7v160006IS4_S4_LPv0EEEOT_OT0_, symObjAddr: 0x36A4, symBinAddr: 0x100009B8C, symSize: 0x34 }
  - { offsetInCU: 0xEC44, offset: 0x1B5D6, size: 0x8, addend: 0x0, symName: __ZNSt3__118__unwrap_iter_implIPPP4NodeLb1EE8__rewrapB7v160006ES4_S4_, symObjAddr: 0x36D8, symBinAddr: 0x100009BC0, symSize: 0x50 }
  - { offsetInCU: 0xEC7F, offset: 0x1B611, size: 0x8, addend: 0x0, symName: __ZNSt3__114__split_bufferIPP4NodeRNS_9allocatorIS3_EEE21_ConstructTransactionC1B7v160006EPPS3_m, symObjAddr: 0x3764, symBinAddr: 0x100009C4C, symSize: 0x3C }
  - { offsetInCU: 0xECC4, offset: 0x1B656, size: 0x8, addend: 0x0, symName: __ZNSt3__116allocator_traitsINS_9allocatorIPP4NodeEEE9constructB7v160006IS4_JS4_EvEEvRS5_PT_DpOT0_, symObjAddr: 0x37A0, symBinAddr: 0x100009C88, symSize: 0x34 }
  - { offsetInCU: 0xED1B, offset: 0x1B6AD, size: 0x8, addend: 0x0, symName: __ZNSt3__114__split_bufferIPP4NodeRNS_9allocatorIS3_EEE7__allocB7v160006Ev, symObjAddr: 0x37D4, symBinAddr: 0x100009CBC, symSize: 0x28 }
  - { offsetInCU: 0xED40, offset: 0x1B6D2, size: 0x8, addend: 0x0, symName: __ZNKSt3__113move_iteratorIPPP4NodeEdeB7v160006Ev, symObjAddr: 0x37FC, symBinAddr: 0x100009CE4, symSize: 0x18 }
  - { offsetInCU: 0xED65, offset: 0x1B6F7, size: 0x8, addend: 0x0, symName: __ZNSt3__113move_iteratorIPPP4NodeEppB7v160006Ev, symObjAddr: 0x3814, symBinAddr: 0x100009CFC, symSize: 0x20 }
  - { offsetInCU: 0xED8A, offset: 0x1B71C, size: 0x8, addend: 0x0, symName: __ZNSt3__114__split_bufferIPP4NodeRNS_9allocatorIS3_EEE21_ConstructTransactionD1B7v160006Ev, symObjAddr: 0x3834, symBinAddr: 0x100009D1C, symSize: 0x2C }
  - { offsetInCU: 0xEDB3, offset: 0x1B745, size: 0x8, addend: 0x0, symName: __ZNKSt3__113move_iteratorIPPP4NodeE4baseB7v160006Ev, symObjAddr: 0x38D8, symBinAddr: 0x100009DC0, symSize: 0x18 }
  - { offsetInCU: 0xEDD8, offset: 0x1B76A, size: 0x8, addend: 0x0, symName: __ZNSt3__114__split_bufferIPP4NodeRNS_9allocatorIS3_EEE21_ConstructTransactionC2B7v160006EPPS3_m, symObjAddr: 0x38F0, symBinAddr: 0x100009DD8, symSize: 0x44 }
  - { offsetInCU: 0xEE1D, offset: 0x1B7AF, size: 0x8, addend: 0x0, symName: __ZNSt3__19allocatorIPP4NodeE9constructB7v160006IS3_JS3_EEEvPT_DpOT0_, symObjAddr: 0x3934, symBinAddr: 0x100009E1C, symSize: 0x28 }
  - { offsetInCU: 0xEE72, offset: 0x1B804, size: 0x8, addend: 0x0, symName: __ZNSt3__117__compressed_pairIPPP4NodeRNS_9allocatorIS3_EEE6secondB7v160006Ev, symObjAddr: 0x395C, symBinAddr: 0x100009E44, symSize: 0x28 }
  - { offsetInCU: 0xEE97, offset: 0x1B829, size: 0x8, addend: 0x0, symName: __ZNSt3__122__compressed_pair_elemIRNS_9allocatorIPP4NodeEELi1ELb0EE5__getB7v160006Ev, symObjAddr: 0x3984, symBinAddr: 0x100009E6C, symSize: 0x18 }
  - { offsetInCU: 0xEEBC, offset: 0x1B84E, size: 0x8, addend: 0x0, symName: __ZNSt3__114__split_bufferIPP4NodeRNS_9allocatorIS3_EEE21_ConstructTransactionD2B7v160006Ev, symObjAddr: 0x399C, symBinAddr: 0x100009E84, symSize: 0x20 }
  - { offsetInCU: 0xEEE5, offset: 0x1B877, size: 0x8, addend: 0x0, symName: __ZNSt3__113move_iteratorIPPP4NodeEC2B7v160006ES4_, symObjAddr: 0x39BC, symBinAddr: 0x100009EA4, symSize: 0x20 }
  - { offsetInCU: 0xEF1C, offset: 0x1B8AE, size: 0x8, addend: 0x0, symName: __ZNSt3__19allocatorIPP4NodeE9constructB7v160006IS3_JRKS3_EEEvPT_DpOT0_, symObjAddr: 0x39DC, symBinAddr: 0x100009EC4, symSize: 0x28 }
  - { offsetInCU: 0xEF85, offset: 0x1B917, size: 0x8, addend: 0x0, symName: __ZNKSt3__123__move_backward_trivialclB7v160006IPP4NodeS4_Li0EEENS_4pairIPT_PT0_EES7_S7_S9_, symObjAddr: 0x3C90, symBinAddr: 0x10000A068, symSize: 0x48 }
  - { offsetInCU: 0xEFEC, offset: 0x1B97E, size: 0x8, addend: 0x0, symName: __ZNSt3__14pairIPPP4NodeS4_EC1B7v160006IRS4_S7_LPv0EEEOT_OT0_, symObjAddr: 0x3DA4, symBinAddr: 0x10000A17C, symSize: 0x3C }
  - { offsetInCU: 0xF049, offset: 0x1B9DB, size: 0x8, addend: 0x0, symName: __ZNSt3__14pairIPPP4NodeS4_EC2B7v160006IRS4_S7_LPv0EEEOT_OT0_, symObjAddr: 0x3DE0, symBinAddr: 0x10000A1B8, symSize: 0x34 }
  - { offsetInCU: 0xF0A6, offset: 0x1BA38, size: 0x8, addend: 0x0, symName: __ZNSt3__114__split_bufferIPP4NodeRNS_9allocatorIS3_EEEC2EmmS6_, symObjAddr: 0x3E9C, symBinAddr: 0x10000A1EC, symSize: 0xD4 }
  - { offsetInCU: 0xF119, offset: 0x1BAAB, size: 0x8, addend: 0x0, symName: __ZNSt3__117__compressed_pairIPPP4NodeRNS_9allocatorIS3_EEEC1B7v160006IDnS7_EEOT_OT0_, symObjAddr: 0x3F70, symBinAddr: 0x10000A2C0, symSize: 0x3C }
  - { offsetInCU: 0xF170, offset: 0x1BB02, size: 0x8, addend: 0x0, symName: __ZNSt3__117__compressed_pairIPPP4NodeRNS_9allocatorIS3_EEEC2B7v160006IDnS7_EEOT_OT0_, symObjAddr: 0x3FEC, symBinAddr: 0x10000A33C, symSize: 0x48 }
  - { offsetInCU: 0xF1C7, offset: 0x1BB59, size: 0x8, addend: 0x0, symName: __ZNSt3__122__compressed_pair_elemIRNS_9allocatorIPP4NodeEELi1ELb0EEC2B7v160006IS6_vEEOT_, symObjAddr: 0x4034, symBinAddr: 0x10000A384, symSize: 0x20 }
  - { offsetInCU: 0xF208, offset: 0x1BB9A, size: 0x8, addend: 0x0, symName: __ZNSt3__19allocatorIPP4NodeE8allocateB7v160006Em, symObjAddr: 0x4054, symBinAddr: 0x10000A3A4, symSize: 0x58 }
  - { offsetInCU: 0xF245, offset: 0x1BBD7, size: 0x8, addend: 0x0, symName: __ZNSt3__116allocator_traitsINS_9allocatorIPP4NodeEEE8max_sizeB7v160006IS5_vEEmRKS5_, symObjAddr: 0x40AC, symBinAddr: 0x10000A3FC, symSize: 0x24 }
  - { offsetInCU: 0xF273, offset: 0x1BC05, size: 0x8, addend: 0x0, symName: __ZNKSt3__19allocatorIPP4NodeE8max_sizeB7v160006Ev, symObjAddr: 0x40D0, symBinAddr: 0x10000A420, symSize: 0x14 }
  - { offsetInCU: 0xF298, offset: 0x1BC2A, size: 0x8, addend: 0x0, symName: __ZNSt3__122__allocator_destructorINS_9allocatorIP4NodeEEEC2B7v160006ERS4_m, symObjAddr: 0x40E4, symBinAddr: 0x10000A434, symSize: 0x2C }
  - { offsetInCU: 0xF2DD, offset: 0x1BC6F, size: 0x8, addend: 0x0, symName: __ZNSt3__110unique_ptrIPP4NodeNS_22__allocator_destructorINS_9allocatorIS2_EEEEEC2B7v160006ILb1EvEES3_NS_16__dependent_typeINS_27__unique_ptr_deleter_sfinaeIS7_EEXT_EE20__good_rval_ref_typeE, symObjAddr: 0x4110, symBinAddr: 0x10000A460, symSize: 0x48 }
  - { offsetInCU: 0xF32D, offset: 0x1BCBF, size: 0x8, addend: 0x0, symName: __ZNSt3__117__compressed_pairIPP4NodeNS_22__allocator_destructorINS_9allocatorIS2_EEEEEC1B7v160006IRS3_S7_EEOT_OT0_, symObjAddr: 0x4158, symBinAddr: 0x10000A4A8, symSize: 0x3C }
  - { offsetInCU: 0xF384, offset: 0x1BD16, size: 0x8, addend: 0x0, symName: __ZNSt3__117__compressed_pairIPP4NodeNS_22__allocator_destructorINS_9allocatorIS2_EEEEEC2B7v160006IRS3_S7_EEOT_OT0_, symObjAddr: 0x4194, symBinAddr: 0x10000A4E4, symSize: 0x48 }
  - { offsetInCU: 0xF3DB, offset: 0x1BD6D, size: 0x8, addend: 0x0, symName: __ZNSt3__122__compressed_pair_elemIPP4NodeLi0ELb0EEC2B7v160006IRS3_vEEOT_, symObjAddr: 0x41DC, symBinAddr: 0x10000A52C, symSize: 0x24 }
  - { offsetInCU: 0xF41C, offset: 0x1BDAE, size: 0x8, addend: 0x0, symName: __ZNSt3__122__compressed_pair_elemINS_22__allocator_destructorINS_9allocatorIP4NodeEEEELi1ELb0EEC2B7v160006IS6_vEEOT_, symObjAddr: 0x4200, symBinAddr: 0x10000A550, symSize: 0x24 }
  - { offsetInCU: 0xF45D, offset: 0x1BDEF, size: 0x8, addend: 0x0, symName: __ZNKSt3__117__compressed_pairIPP4NodeNS_22__allocator_destructorINS_9allocatorIS2_EEEEE5firstB7v160006Ev, symObjAddr: 0x4224, symBinAddr: 0x10000A574, symSize: 0x24 }
  - { offsetInCU: 0xF482, offset: 0x1BE14, size: 0x8, addend: 0x0, symName: __ZNSt3__117__compressed_pairIPP4NodeNS_22__allocator_destructorINS_9allocatorIS2_EEEEE5firstB7v160006Ev, symObjAddr: 0x4248, symBinAddr: 0x10000A598, symSize: 0x24 }
  - { offsetInCU: 0xF4A7, offset: 0x1BE39, size: 0x8, addend: 0x0, symName: __ZNSt3__117__compressed_pairIPPP4NodeNS_9allocatorIS3_EEE5firstB7v160006Ev, symObjAddr: 0x4280, symBinAddr: 0x10000A5BC, symSize: 0x24 }
  - { offsetInCU: 0xF4CC, offset: 0x1BE5E, size: 0x8, addend: 0x0, symName: __ZNSt3__122__compressed_pair_elemIPPP4NodeLi0ELb0EE5__getB7v160006Ev, symObjAddr: 0x42A4, symBinAddr: 0x10000A5E0, symSize: 0x14 }
  - { offsetInCU: 0xF4F1, offset: 0x1BE83, size: 0x8, addend: 0x0, symName: __ZNSt3__117__compressed_pairIPPP4NodeRNS_9allocatorIS3_EEE5firstB7v160006Ev, symObjAddr: 0x42B8, symBinAddr: 0x10000A5F4, symSize: 0x24 }
  - { offsetInCU: 0xF516, offset: 0x1BEA8, size: 0x8, addend: 0x0, symName: __ZNSt3__110unique_ptrIPP4NodeNS_22__allocator_destructorINS_9allocatorIS2_EEEEED2B7v160006Ev, symObjAddr: 0x42DC, symBinAddr: 0x10000A618, symSize: 0x30 }
  - { offsetInCU: 0xF53F, offset: 0x1BED1, size: 0x8, addend: 0x0, symName: __ZNSt3__110unique_ptrIPP4NodeNS_22__allocator_destructorINS_9allocatorIS2_EEEEE5resetB7v160006ES3_, symObjAddr: 0x430C, symBinAddr: 0x10000A648, symSize: 0x78 }
  - { offsetInCU: 0xF583, offset: 0x1BF15, size: 0x8, addend: 0x0, symName: __ZNSt3__117__compressed_pairIPP4NodeNS_22__allocator_destructorINS_9allocatorIS2_EEEEE6secondB7v160006Ev, symObjAddr: 0x4384, symBinAddr: 0x10000A6C0, symSize: 0x28 }
  - { offsetInCU: 0xF5A8, offset: 0x1BF3A, size: 0x8, addend: 0x0, symName: __ZNSt3__122__allocator_destructorINS_9allocatorIP4NodeEEEclB7v160006EPS3_, symObjAddr: 0x43AC, symBinAddr: 0x10000A6E8, symSize: 0x34 }
  - { offsetInCU: 0xF5DB, offset: 0x1BF6D, size: 0x8, addend: 0x0, symName: __ZNSt3__122__compressed_pair_elemINS_22__allocator_destructorINS_9allocatorIP4NodeEEEELi1ELb0EE5__getB7v160006Ev, symObjAddr: 0x43E0, symBinAddr: 0x10000A71C, symSize: 0x14 }
  - { offsetInCU: 0xF600, offset: 0x1BF92, size: 0x8, addend: 0x0, symName: __ZNSt3__114__split_bufferIPP4NodeRNS_9allocatorIS3_EEED2Ev, symObjAddr: 0x43F4, symBinAddr: 0x10000A730, symSize: 0x8C }
  - { offsetInCU: 0xF62B, offset: 0x1BFBD, size: 0x8, addend: 0x0, symName: __ZNSt3__114__split_bufferIPP4NodeRNS_9allocatorIS3_EEE5clearB7v160006Ev, symObjAddr: 0x4480, symBinAddr: 0x10000A7BC, symSize: 0x28 }
  - { offsetInCU: 0xF650, offset: 0x1BFE2, size: 0x8, addend: 0x0, symName: __ZNKSt3__114__split_bufferIPP4NodeRNS_9allocatorIS3_EEE8capacityB7v160006Ev, symObjAddr: 0x44A8, symBinAddr: 0x10000A7E4, symSize: 0x40 }
  - { offsetInCU: 0xF675, offset: 0x1C007, size: 0x8, addend: 0x0, symName: __ZNSt3__114__split_bufferIPP4NodeRNS_9allocatorIS3_EEE17__destruct_at_endB7v160006EPS3_, symObjAddr: 0x44E8, symBinAddr: 0x10000A824, symSize: 0x2C }
  - { offsetInCU: 0xF6A7, offset: 0x1C039, size: 0x8, addend: 0x0, symName: __ZNSt3__114__split_bufferIPP4NodeRNS_9allocatorIS3_EEE17__destruct_at_endB7v160006EPS3_NS_17integral_constantIbLb0EEE, symObjAddr: 0x4514, symBinAddr: 0x10000A850, symSize: 0x80 }
  - { offsetInCU: 0xF6E7, offset: 0x1C079, size: 0x8, addend: 0x0, symName: __ZNKSt3__114__split_bufferIPP4NodeRNS_9allocatorIS3_EEE9__end_capB7v160006Ev, symObjAddr: 0x4594, symBinAddr: 0x10000A8D0, symSize: 0x28 }
  - { offsetInCU: 0xF70C, offset: 0x1C09E, size: 0x8, addend: 0x0, symName: __ZNKSt3__117__compressed_pairIPPP4NodeRNS_9allocatorIS3_EEE5firstB7v160006Ev, symObjAddr: 0x45BC, symBinAddr: 0x10000A8F8, symSize: 0x24 }
  - { offsetInCU: 0xF731, offset: 0x1C0C3, size: 0x8, addend: 0x0, symName: __ZNKSt3__15dequeIP4NodeNS_9allocatorIS2_EEE5emptyB7v160006Ev, symObjAddr: 0x4608, symBinAddr: 0x10000A91C, symSize: 0x30 }
  - { offsetInCU: 0xF755, offset: 0x1C0E7, size: 0x8, addend: 0x0, symName: __ZNSt3__15dequeIP4NodeNS_9allocatorIS2_EEE5frontEv, symObjAddr: 0x4638, symBinAddr: 0x10000A94C, symSize: 0x50 }
  - { offsetInCU: 0xF77B, offset: 0x1C10D, size: 0x8, addend: 0x0, symName: __ZNSt3__15dequeIP4NodeNS_9allocatorIS2_EEE9pop_frontEv, symObjAddr: 0x4688, symBinAddr: 0x10000A99C, symSize: 0xAC }
  - { offsetInCU: 0xF7B2, offset: 0x1C144, size: 0x8, addend: 0x0, symName: __ZNSt3__15dequeIP4NodeNS_9allocatorIS2_EEE26__maybe_remove_front_spareB7v160006Eb, symObjAddr: 0x4734, symBinAddr: 0x10000AA48, symSize: 0xDC }
  - { offsetInCU: 0xF7E6, offset: 0x1C178, size: 0x8, addend: 0x0, symName: __ZNKSt3__15dequeIP4NodeNS_9allocatorIS2_EEE20__front_spare_blocksB7v160006Ev, symObjAddr: 0x4810, symBinAddr: 0x10000AB24, symSize: 0x2C }
  - { offsetInCU: 0xF824, offset: 0x1C1B6, size: 0x8, addend: 0x0, symName: __ZNSt3__111char_traitsIcE6lengthEPKc, symObjAddr: 0x5E98, symBinAddr: 0x10000AD3C, symSize: 0x34 }
  - { offsetInCU: 0xF865, offset: 0x1C1F7, size: 0x8, addend: 0x0, symName: __ZNKSt3__113basic_ostreamIcNS_11char_traitsIcEEE6sentrycvbB7v160006Ev, symObjAddr: 0x5ECC, symBinAddr: 0x10000AD70, symSize: 0x1C }
  - { offsetInCU: 0xF88A, offset: 0x1C21C, size: 0x8, addend: 0x0, symName: __ZNSt3__119ostreambuf_iteratorIcNS_11char_traitsIcEEEC1B7v160006ERNS_13basic_ostreamIcS2_EE, symObjAddr: 0x6128, symBinAddr: 0x10000AFCC, symSize: 0x34 }
  - { offsetInCU: 0xF8C1, offset: 0x1C253, size: 0x8, addend: 0x0, symName: __ZNKSt3__18ios_base5flagsB7v160006Ev, symObjAddr: 0x615C, symBinAddr: 0x10000B000, symSize: 0x18 }
  - { offsetInCU: 0xF8E7, offset: 0x1C279, size: 0x8, addend: 0x0, symName: __ZNKSt3__19basic_iosIcNS_11char_traitsIcEEE4fillB7v160006Ev, symObjAddr: 0x6174, symBinAddr: 0x10000B018, symSize: 0x64 }
  - { offsetInCU: 0xF90E, offset: 0x1C2A0, size: 0x8, addend: 0x0, symName: __ZNKSt3__119ostreambuf_iteratorIcNS_11char_traitsIcEEE6failedB7v160006Ev, symObjAddr: 0x61D8, symBinAddr: 0x10000B07C, symSize: 0x24 }
  - { offsetInCU: 0xF933, offset: 0x1C2C5, size: 0x8, addend: 0x0, symName: __ZNSt3__19basic_iosIcNS_11char_traitsIcEEE8setstateB7v160006Ej, symObjAddr: 0x61FC, symBinAddr: 0x10000B0A0, symSize: 0x2C }
  - { offsetInCU: 0xF967, offset: 0x1C2F9, size: 0x8, addend: 0x0, symName: __ZNKSt3__18ios_base5widthB7v160006Ev, symObjAddr: 0x6228, symBinAddr: 0x10000B0CC, symSize: 0x18 }
  - { offsetInCU: 0xF98E, offset: 0x1C320, size: 0x8, addend: 0x0, symName: __ZNSt3__115basic_streambufIcNS_11char_traitsIcEEE5sputnB7v160006EPKcl, symObjAddr: 0x6240, symBinAddr: 0x10000B0E4, symSize: 0x3C }
  - { offsetInCU: 0xF9CF, offset: 0x1C361, size: 0x8, addend: 0x0, symName: __ZNSt3__112basic_stringIcNS_11char_traitsIcEENS_9allocatorIcEEEC1B7v160006Emc, symObjAddr: 0x627C, symBinAddr: 0x10000B120, symSize: 0x3C }
  - { offsetInCU: 0xFA16, offset: 0x1C3A8, size: 0x8, addend: 0x0, symName: __ZNKSt3__112basic_stringIcNS_11char_traitsIcEENS_9allocatorIcEEE4dataB7v160006Ev, symObjAddr: 0x62B8, symBinAddr: 0x10000B15C, symSize: 0x28 }
  - { offsetInCU: 0xFA3B, offset: 0x1C3CD, size: 0x8, addend: 0x0, symName: __ZNSt3__18ios_base5widthB7v160006El, symObjAddr: 0x62E0, symBinAddr: 0x10000B184, symSize: 0x2C }
  - { offsetInCU: 0xFA81, offset: 0x1C413, size: 0x8, addend: 0x0, symName: __ZNSt3__112basic_stringIcNS_11char_traitsIcEENS_9allocatorIcEEEC2B7v160006Emc, symObjAddr: 0x630C, symBinAddr: 0x10000B1B0, symSize: 0x54 }
  - { offsetInCU: 0xFAC8, offset: 0x1C45A, size: 0x8, addend: 0x0, symName: __ZNSt3__117__compressed_pairINS_12basic_stringIcNS_11char_traitsIcEENS_9allocatorIcEEE5__repES5_EC1B7v160006INS_18__default_init_tagESA_EEOT_OT0_, symObjAddr: 0x6360, symBinAddr: 0x10000B204, symSize: 0x3C }
  - { offsetInCU: 0xFB1F, offset: 0x1C4B1, size: 0x8, addend: 0x0, symName: __ZNSt3__117__compressed_pairINS_12basic_stringIcNS_11char_traitsIcEENS_9allocatorIcEEE5__repES5_EC2B7v160006INS_18__default_init_tagESA_EEOT_OT0_, symObjAddr: 0x63AC, symBinAddr: 0x10000B250, symSize: 0x3C }
  - { offsetInCU: 0xFB76, offset: 0x1C508, size: 0x8, addend: 0x0, symName: __ZNSt3__122__compressed_pair_elemINS_12basic_stringIcNS_11char_traitsIcEENS_9allocatorIcEEE5__repELi0ELb0EEC2B7v160006ENS_18__default_init_tagE, symObjAddr: 0x63E8, symBinAddr: 0x10000B28C, symSize: 0x14 }
  - { offsetInCU: 0xFBAA, offset: 0x1C53C, size: 0x8, addend: 0x0, symName: __ZNSt3__122__compressed_pair_elemINS_9allocatorIcEELi1ELb1EEC2B7v160006ENS_18__default_init_tagE, symObjAddr: 0x63FC, symBinAddr: 0x10000B2A0, symSize: 0x2C }
  - { offsetInCU: 0xFBDE, offset: 0x1C570, size: 0x8, addend: 0x0, symName: __ZNSt3__19allocatorIcEC2B7v160006Ev, symObjAddr: 0x6428, symBinAddr: 0x10000B2CC, symSize: 0x2C }
  - { offsetInCU: 0xFC07, offset: 0x1C599, size: 0x8, addend: 0x0, symName: __ZNSt3__116__non_trivial_ifILb1ENS_9allocatorIcEEEC2B7v160006Ev, symObjAddr: 0x6454, symBinAddr: 0x10000B2F8, symSize: 0x14 }
  - { offsetInCU: 0xFC30, offset: 0x1C5C2, size: 0x8, addend: 0x0, symName: __ZNKSt3__112basic_stringIcNS_11char_traitsIcEENS_9allocatorIcEEE13__get_pointerB7v160006Ev, symObjAddr: 0x647C, symBinAddr: 0x10000B320, symSize: 0x54 }
  - { offsetInCU: 0xFC55, offset: 0x1C5E7, size: 0x8, addend: 0x0, symName: __ZNKSt3__112basic_stringIcNS_11char_traitsIcEENS_9allocatorIcEEE9__is_longB7v160006Ev, symObjAddr: 0x64D0, symBinAddr: 0x10000B374, symSize: 0x38 }
  - { offsetInCU: 0xFC7A, offset: 0x1C60C, size: 0x8, addend: 0x0, symName: __ZNKSt3__112basic_stringIcNS_11char_traitsIcEENS_9allocatorIcEEE18__get_long_pointerB7v160006Ev, symObjAddr: 0x6508, symBinAddr: 0x10000B3AC, symSize: 0x28 }
  - { offsetInCU: 0xFC9F, offset: 0x1C631, size: 0x8, addend: 0x0, symName: __ZNKSt3__112basic_stringIcNS_11char_traitsIcEENS_9allocatorIcEEE19__get_short_pointerB7v160006Ev, symObjAddr: 0x6530, symBinAddr: 0x10000B3D4, symSize: 0x28 }
  - { offsetInCU: 0xFCC4, offset: 0x1C656, size: 0x8, addend: 0x0, symName: __ZNKSt3__117__compressed_pairINS_12basic_stringIcNS_11char_traitsIcEENS_9allocatorIcEEE5__repES5_E5firstB7v160006Ev, symObjAddr: 0x6558, symBinAddr: 0x10000B3FC, symSize: 0x24 }
  - { offsetInCU: 0xFCE9, offset: 0x1C67B, size: 0x8, addend: 0x0, symName: __ZNKSt3__122__compressed_pair_elemINS_12basic_stringIcNS_11char_traitsIcEENS_9allocatorIcEEE5__repELi0ELb0EE5__getB7v160006Ev, symObjAddr: 0x657C, symBinAddr: 0x10000B420, symSize: 0x14 }
  - { offsetInCU: 0xFD0E, offset: 0x1C6A0, size: 0x8, addend: 0x0, symName: __ZNSt3__114pointer_traitsIPKcE10pointer_toB7v160006ERS1_, symObjAddr: 0x6590, symBinAddr: 0x10000B434, symSize: 0x14 }
  - { offsetInCU: 0xFD31, offset: 0x1C6C3, size: 0x8, addend: 0x0, symName: __ZNSt3__119ostreambuf_iteratorIcNS_11char_traitsIcEEEC2B7v160006ERNS_13basic_ostreamIcS2_EE, symObjAddr: 0x65A4, symBinAddr: 0x10000B448, symSize: 0x54 }
  - { offsetInCU: 0xFD67, offset: 0x1C6F9, size: 0x8, addend: 0x0, symName: __ZNKSt3__19basic_iosIcNS_11char_traitsIcEEE5rdbufB7v160006Ev, symObjAddr: 0x65F8, symBinAddr: 0x10000B49C, symSize: 0x24 }
  - { offsetInCU: 0xFD8E, offset: 0x1C720, size: 0x8, addend: 0x0, symName: __ZNKSt3__18ios_base5rdbufB7v160006Ev, symObjAddr: 0x661C, symBinAddr: 0x10000B4C0, symSize: 0x18 }
  - { offsetInCU: 0xFDB3, offset: 0x1C745, size: 0x8, addend: 0x0, symName: __ZNSt3__111char_traitsIcE11eq_int_typeEii, symObjAddr: 0x6634, symBinAddr: 0x10000B4D8, symSize: 0x28 }
  - { offsetInCU: 0xFDE4, offset: 0x1C776, size: 0x8, addend: 0x0, symName: __ZNSt3__111char_traitsIcE3eofEv, symObjAddr: 0x665C, symBinAddr: 0x10000B500, symSize: 0x8 }
  - { offsetInCU: 0xFDF7, offset: 0x1C789, size: 0x8, addend: 0x0, symName: __ZNKSt3__19basic_iosIcNS_11char_traitsIcEEE5widenB7v160006Ec, symObjAddr: 0x6664, symBinAddr: 0x10000B508, symSize: 0x84 }
  - { offsetInCU: 0xFE64, offset: 0x1C7F6, size: 0x8, addend: 0x0, symName: __ZNKSt3__15ctypeIcE5widenB7v160006Ec, symObjAddr: 0x6714, symBinAddr: 0x10000B5B8, symSize: 0x38 }
  - { offsetInCU: 0xFE97, offset: 0x1C829, size: 0x8, addend: 0x0, symName: __ZNSt3__18ios_base8setstateB7v160006Ej, symObjAddr: 0x674C, symBinAddr: 0x10000B5F0, symSize: 0x34 }
  - { offsetInCU: 0x90F9, offset: 0x25A42, size: 0x8, addend: 0x0, symName: __ZN2Ai3DFSEP4NodeS1_, symObjAddr: 0x0, symBinAddr: 0x10000B648, symSize: 0x344 }
  - { offsetInCU: 0x929D, offset: 0x25BE6, size: 0x8, addend: 0x0, symName: __ZNSt3__15stackIP4NodeNS_5dequeIS2_NS_9allocatorIS2_EEEEEC1B7v160006Ev, symObjAddr: 0x560, symBinAddr: 0x10000B98C, symSize: 0x2C }
  - { offsetInCU: 0x92C6, offset: 0x25C0F, size: 0x8, addend: 0x0, symName: __ZNSt3__15stackIP4NodeNS_5dequeIS2_NS_9allocatorIS2_EEEEE4pushB7v160006ERKS2_, symObjAddr: 0x58C, symBinAddr: 0x10000B9B8, symSize: 0x2C }
  - { offsetInCU: 0x92F9, offset: 0x25C42, size: 0x8, addend: 0x0, symName: __ZNKSt3__15stackIP4NodeNS_5dequeIS2_NS_9allocatorIS2_EEEEE5emptyB7v160006Ev, symObjAddr: 0x5B8, symBinAddr: 0x10000B9E4, symSize: 0x28 }
  - { offsetInCU: 0x931E, offset: 0x25C67, size: 0x8, addend: 0x0, symName: __ZNSt3__15stackIP4NodeNS_5dequeIS2_NS_9allocatorIS2_EEEEE3topB7v160006Ev, symObjAddr: 0x5E0, symBinAddr: 0x10000BA0C, symSize: 0x24 }
  - { offsetInCU: 0x9343, offset: 0x25C8C, size: 0x8, addend: 0x0, symName: __ZNSt3__15stackIP4NodeNS_5dequeIS2_NS_9allocatorIS2_EEEEE3popB7v160006Ev, symObjAddr: 0x604, symBinAddr: 0x10000BA30, symSize: 0x24 }
  - { offsetInCU: 0x9368, offset: 0x25CB1, size: 0x8, addend: 0x0, symName: __ZNSt3__15stackIP4NodeNS_5dequeIS2_NS_9allocatorIS2_EEEEED1Ev, symObjAddr: 0x8C0, symBinAddr: 0x10000BA54, symSize: 0x2C }
  - { offsetInCU: 0x9393, offset: 0x25CDC, size: 0x8, addend: 0x0, symName: __ZNSt3__15stackIP4NodeNS_5dequeIS2_NS_9allocatorIS2_EEEEED2Ev, symObjAddr: 0xA0C, symBinAddr: 0x10000BA80, symSize: 0x2C }
  - { offsetInCU: 0x93BE, offset: 0x25D07, size: 0x8, addend: 0x0, symName: __ZNSt3__15stackIP4NodeNS_5dequeIS2_NS_9allocatorIS2_EEEEEC2B7v160006Ev, symObjAddr: 0x1A40, symBinAddr: 0x10000BAAC, symSize: 0x2C }
  - { offsetInCU: 0x93FA, offset: 0x25D43, size: 0x8, addend: 0x0, symName: __ZNSt3__15dequeIP4NodeNS_9allocatorIS2_EEE4backEv, symObjAddr: 0x4610, symBinAddr: 0x10000BAD8, symSize: 0x68 }
  - { offsetInCU: 0x9430, offset: 0x25D79, size: 0x8, addend: 0x0, symName: __ZNSt3__15dequeIP4NodeNS_9allocatorIS2_EEE8pop_backEv, symObjAddr: 0x4678, symBinAddr: 0x10000BB40, symSize: 0xB8 }
  - { offsetInCU: 0x9477, offset: 0x25DC0, size: 0x8, addend: 0x0, symName: __ZNSt3__15dequeIP4NodeNS_9allocatorIS2_EEE25__maybe_remove_back_spareB7v160006Eb, symObjAddr: 0x4730, symBinAddr: 0x10000BBF8, symSize: 0xCC }
  - { offsetInCU: 0x94AB, offset: 0x25DF4, size: 0x8, addend: 0x0, symName: __ZNKSt3__15dequeIP4NodeNS_9allocatorIS2_EEE19__back_spare_blocksB7v160006Ev, symObjAddr: 0x47FC, symBinAddr: 0x10000BCC4, symSize: 0x2C }
  - { offsetInCU: 0x94D0, offset: 0x25E19, size: 0x8, addend: 0x0, symName: __ZNSt3__114__split_bufferIPP4NodeNS_9allocatorIS3_EEE4backB7v160006Ev, symObjAddr: 0x4828, symBinAddr: 0x10000BCF0, symSize: 0x1C }
  - { offsetInCU: 0x94F5, offset: 0x25E3E, size: 0x8, addend: 0x0, symName: __ZNSt3__114__split_bufferIPP4NodeNS_9allocatorIS3_EEE8pop_backB7v160006Ev, symObjAddr: 0x4844, symBinAddr: 0x10000BD0C, symSize: 0x2C }
  - { offsetInCU: 0x31A3, offset: 0x2903C, size: 0x8, addend: 0x0, symName: '__ZNSt3__117__floyd_sift_downB7v160006INS_17_ClassicAlgPolicyERZN2Ai8DijkstraEP4NodeS4_E3$_0NS_11__wrap_iterIPS4_EEEET1_SA_OT0_NS_15iterator_traitsISA_E15difference_typeE', symObjAddr: 0x1980, symBinAddr: 0x10000C68C, symSize: 0x154 }
  - { offsetInCU: 0x5A52, offset: 0x2B8EB, size: 0x8, addend: 0x0, symName: '__ZNSt3__19push_heapB7v160006INS_11__wrap_iterIPP4NodeEEZN2Ai8DijkstraES3_S3_E3$_0EEvT_S8_T0_', symObjAddr: 0x143C, symBinAddr: 0x10000C2AC, symSize: 0x40 }
  - { offsetInCU: 0x5AA8, offset: 0x2B941, size: 0x8, addend: 0x0, symName: '__ZNSt3__111__push_heapB7v160006INS_17_ClassicAlgPolicyENS_11__wrap_iterIPP4NodeEEZN2Ai8DijkstraES4_S4_E3$_0EEvT0_S9_RT1_', symObjAddr: 0x147C, symBinAddr: 0x10000C2EC, symSize: 0x5C }
  - { offsetInCU: 0x5B15, offset: 0x2B9AE, size: 0x8, addend: 0x0, symName: '__ZNSt3__19__sift_upB7v160006INS_17_ClassicAlgPolicyERZN2Ai8DijkstraEP4NodeS4_E3$_0NS_11__wrap_iterIPS4_EEEEvT1_SA_OT0_NS_15iterator_traitsISA_E15difference_typeE', symObjAddr: 0x1520, symBinAddr: 0x10000C348, symSize: 0x174 }
  - { offsetInCU: 0x5BC5, offset: 0x2BA5E, size: 0x8, addend: 0x0, symName: '__ZNSt3__18pop_heapB7v160006INS_11__wrap_iterIPP4NodeEEZN2Ai8DijkstraES3_S3_E3$_0EEvT_S8_T0_', symObjAddr: 0x17B8, symBinAddr: 0x10000C4F0, symSize: 0x58 }
  - { offsetInCU: 0x5C29, offset: 0x2BAC2, size: 0x8, addend: 0x0, symName: '__ZNSt3__110__pop_heapB7v160006INS_17_ClassicAlgPolicyEZN2Ai8DijkstraEP4NodeS4_E3$_0NS_11__wrap_iterIPS4_EEEEvT1_S9_RT0_NS_15iterator_traitsIS9_E15difference_typeE', symObjAddr: 0x183C, symBinAddr: 0x10000C548, symSize: 0x144 }
  - { offsetInCU: 0x8035, offset: 0x2DECE, size: 0x8, addend: 0x0, symName: __ZN2Ai8DijkstraEP4NodeS1_, symObjAddr: 0x0, symBinAddr: 0x10000BD38, symSize: 0x3C4 }
  - { offsetInCU: 0x8225, offset: 0x2E0BE, size: 0x8, addend: 0x0, symName: '__ZNSt3__114priority_queueIP4NodeNS_6vectorIS2_NS_9allocatorIS2_EEEEZN2Ai8DijkstraES2_S2_E3$_0EC1B7v160006ERKS8_', symObjAddr: 0x5E0, symBinAddr: 0x10000C0FC, symSize: 0x34 }
  - { offsetInCU: 0x825D, offset: 0x2E0F6, size: 0x8, addend: 0x0, symName: '__ZNSt3__114priority_queueIP4NodeNS_6vectorIS2_NS_9allocatorIS2_EEEEZN2Ai8DijkstraES2_S2_E3$_0E4pushERKS2_', symObjAddr: 0x614, symBinAddr: 0x10000C130, symSize: 0x58 }
  - { offsetInCU: 0x8292, offset: 0x2E12B, size: 0x8, addend: 0x0, symName: '__ZNKSt3__114priority_queueIP4NodeNS_6vectorIS2_NS_9allocatorIS2_EEEEZN2Ai8DijkstraES2_S2_E3$_0E5emptyB7v160006Ev', symObjAddr: 0x66C, symBinAddr: 0x10000C188, symSize: 0x28 }
  - { offsetInCU: 0x82B7, offset: 0x2E150, size: 0x8, addend: 0x0, symName: '__ZNKSt3__114priority_queueIP4NodeNS_6vectorIS2_NS_9allocatorIS2_EEEEZN2Ai8DijkstraES2_S2_E3$_0E3topB7v160006Ev', symObjAddr: 0x694, symBinAddr: 0x10000C1B0, symSize: 0x24 }
  - { offsetInCU: 0x82DC, offset: 0x2E175, size: 0x8, addend: 0x0, symName: '__ZNSt3__114priority_queueIP4NodeNS_6vectorIS2_NS_9allocatorIS2_EEEEZN2Ai8DijkstraES2_S2_E3$_0E3popEv', symObjAddr: 0x6B8, symBinAddr: 0x10000C1D4, symSize: 0x50 }
  - { offsetInCU: 0x8302, offset: 0x2E19B, size: 0x8, addend: 0x0, symName: '__ZNSt3__114priority_queueIP4NodeNS_6vectorIS2_NS_9allocatorIS2_EEEEZN2Ai8DijkstraES2_S2_E3$_0ED1Ev', symObjAddr: 0x9A0, symBinAddr: 0x10000C224, symSize: 0x2C }
  - { offsetInCU: 0x832E, offset: 0x2E1C7, size: 0x8, addend: 0x0, symName: '__ZNSt3__114priority_queueIP4NodeNS_6vectorIS2_NS_9allocatorIS2_EEEEZN2Ai8DijkstraES2_S2_E3$_0ED2Ev', symObjAddr: 0xAEC, symBinAddr: 0x10000C250, symSize: 0x2C }
  - { offsetInCU: 0x835A, offset: 0x2E1F3, size: 0x8, addend: 0x0, symName: '__ZNSt3__114priority_queueIP4NodeNS_6vectorIS2_NS_9allocatorIS2_EEEEZN2Ai8DijkstraES2_S2_E3$_0EC2B7v160006ERKS8_', symObjAddr: 0xF88, symBinAddr: 0x10000C27C, symSize: 0x30 }
  - { offsetInCU: 0x839C, offset: 0x2E235, size: 0x8, addend: 0x0, symName: '__ZZN2Ai8DijkstraEP4NodeS1_ENK3$_0clES1_S1_', symObjAddr: 0x16D0, symBinAddr: 0x10000C4BC, symSize: 0x34 }
  - { offsetInCU: 0x75A4, offset: 0x35859, size: 0x8, addend: 0x0, symName: __ZN2Ai12GetNeighborsEP4Node, symObjAddr: 0x0, symBinAddr: 0x10000C7E0, symSize: 0x278 }
  - { offsetInCU: 0x7634, offset: 0x358E9, size: 0x8, addend: 0x0, symName: '__ZZN2Ai12GetNeighborsEP4NodeENK3$_0clEii', symObjAddr: 0x2A4, symBinAddr: 0x10000CA58, symSize: 0xD0 }
  - { offsetInCU: 0x7679, offset: 0x3592E, size: 0x8, addend: 0x0, symName: __ZNSt3__16vectorIP4NodeNS_9allocatorIS2_EEE9push_backB7v160006EOS2_, symObjAddr: 0x374, symBinAddr: 0x10000CB28, symSize: 0x6C }
  - { offsetInCU: 0x76AE, offset: 0x35963, size: 0x8, addend: 0x0, symName: __ZNSt3__16vectorINS0_I4NodeNS_9allocatorIS1_EEEENS2_IS4_EEEixB7v160006Em, symObjAddr: 0x3E0, symBinAddr: 0x10000CB94, symSize: 0x2C }
  - { offsetInCU: 0x76E4, offset: 0x35999, size: 0x8, addend: 0x0, symName: __ZNSt3__16vectorI4NodeNS_9allocatorIS1_EEEixB7v160006Em, symObjAddr: 0x40C, symBinAddr: 0x10000CBC0, symSize: 0x2C }
  - { offsetInCU: 0x771A, offset: 0x359CF, size: 0x8, addend: 0x0, symName: __ZNKSt3__16vectorINS0_I4NodeNS_9allocatorIS1_EEEENS2_IS4_EEE4sizeB7v160006Ev, symObjAddr: 0x464, symBinAddr: 0x10000CBEC, symSize: 0x28 }
  - { offsetInCU: 0x773F, offset: 0x359F4, size: 0x8, addend: 0x0, symName: __ZNKSt3__16vectorI4NodeNS_9allocatorIS1_EEE4sizeB7v160006Ev, symObjAddr: 0x48C, symBinAddr: 0x10000CC14, symSize: 0x28 }
  - { offsetInCU: 0x7769, offset: 0x35A1E, size: 0x8, addend: 0x0, symName: __ZNSt3__16vectorIP4NodeNS_9allocatorIS2_EEE22__construct_one_at_endB7v160006IJS2_EEEvDpOT_, symObjAddr: 0xBB8, symBinAddr: 0x10000CC3C, symSize: 0x90 }
  - { offsetInCU: 0x77B8, offset: 0x35A6D, size: 0x8, addend: 0x0, symName: __ZNSt3__16vectorIP4NodeNS_9allocatorIS2_EEE21__push_back_slow_pathIS2_EEvOT_, symObjAddr: 0xC48, symBinAddr: 0x10000CCCC, symSize: 0xD8 }
  - { offsetInCU: 0x782F, offset: 0x35AE4, size: 0x8, addend: 0x0, symName: __ZNSt3__116allocator_traitsINS_9allocatorIP4NodeEEE9constructB7v160006IS3_JS3_EvEEvRS4_PT_DpOT0_, symObjAddr: 0xD94, symBinAddr: 0x10000CDA4, symSize: 0x34 }
  - { offsetInCU: 0x7886, offset: 0x35B3B, size: 0x8, addend: 0x0, symName: __ZNSt3__19allocatorIP4NodeE9constructB7v160006IS2_JS2_EEEvPT_DpOT0_, symObjAddr: 0xE38, symBinAddr: 0x10000CDD8, symSize: 0x28 }
  - { offsetInCU: 0x6F6D, offset: 0x3CB20, size: 0x8, addend: 0x0, symName: __ZNSt3__125__debug_db_invalidate_allB7v160006INS_6vectorINS1_I4NodeNS_9allocatorIS2_EEEENS3_IS5_EEEEEEvPT_, symObjAddr: 0x18CC, symBinAddr: 0x10000E1AC, symSize: 0x10 }
  - { offsetInCU: 0x6F9E, offset: 0x3CB51, size: 0x8, addend: 0x0, symName: __ZNSt3__112__to_addressB7v160006INS_6vectorI4NodeNS_9allocatorIS2_EEEEEEPT_S7_, symObjAddr: 0x19BC, symBinAddr: 0x10000E29C, symSize: 0x14 }
  - { offsetInCU: 0x6FD3, offset: 0x3CB86, size: 0x8, addend: 0x0, symName: __ZNSt3__119__debug_db_insert_cB7v160006INS_6vectorI4NodeNS_9allocatorIS2_EEEEEEvPT_, symObjAddr: 0x1BAC, symBinAddr: 0x10000E48C, symSize: 0x10 }
  - { offsetInCU: 0x7004, offset: 0x3CBB7, size: 0x8, addend: 0x0, symName: __ZNSt3__118__debug_db_erase_cB7v160006INS_6vectorI4NodeNS_9allocatorIS2_EEEEEEvPT_, symObjAddr: 0x1E8C, symBinAddr: 0x10000E76C, symSize: 0x10 }
  - { offsetInCU: 0x7035, offset: 0x3CBE8, size: 0x8, addend: 0x0, symName: __ZNSt3__112__to_addressB7v160006I4NodeEEPT_S3_, symObjAddr: 0x1FA8, symBinAddr: 0x10000E888, symSize: 0x14 }
  - { offsetInCU: 0x706A, offset: 0x3CC1D, size: 0x8, addend: 0x0, symName: __ZNSt3__119__allocate_at_leastB7v160006INS_9allocatorI4NodeEEEENS_19__allocation_resultINS_16allocator_traitsIT_E7pointerEEERS6_m, symObjAddr: 0x2BBC, symBinAddr: 0x10000F268, symSize: 0x40 }
  - { offsetInCU: 0x70AD, offset: 0x3CC60, size: 0x8, addend: 0x0, symName: __ZNSt3__142__uninitialized_allocator_move_if_noexceptB7v160006INS_9allocatorI4NodeEENS_16reverse_iteratorIPS2_EES6_S6_EET2_RT_T0_T1_S7_, symObjAddr: 0x2DF4, symBinAddr: 0x10000F420, symSize: 0x12C }
  - { offsetInCU: 0x714F, offset: 0x3CD02, size: 0x8, addend: 0x0, symName: __ZNSt3__14swapB7v160006IP4NodeEENS_9enable_ifIXaasr21is_move_constructibleIT_EE5valuesr18is_move_assignableIS4_EE5valueEvE4typeERS4_S7_, symObjAddr: 0x2F6C, symBinAddr: 0x10000F598, symSize: 0x3C }
  - { offsetInCU: 0x71A0, offset: 0x3CD53, size: 0x8, addend: 0x0, symName: __ZNSt3__125__debug_db_invalidate_allB7v160006INS_6vectorI4NodeNS_9allocatorIS2_EEEEEEvPT_, symObjAddr: 0x3070, symBinAddr: 0x10000F69C, symSize: 0x10 }
  - { offsetInCU: 0x71D1, offset: 0x3CD84, size: 0x8, addend: 0x0, symName: __ZNSt3__122__make_exception_guardB7v160006INS_29_AllocatorDestroyRangeReverseINS_9allocatorI4NodeEENS_16reverse_iteratorIPS3_EEEEEENS_28__exception_guard_exceptionsIT_EESA_, symObjAddr: 0x3080, symBinAddr: 0x10000F6AC, symSize: 0x4C }
  - { offsetInCU: 0x7207, offset: 0x3CDBA, size: 0x8, addend: 0x0, symName: __ZNSt3__1neB7v160006IP4NodeS2_EEbRKNS_16reverse_iteratorIT_EERKNS3_IT0_EE, symObjAddr: 0x3110, symBinAddr: 0x10000F73C, symSize: 0x48 }
  - { offsetInCU: 0x7253, offset: 0x3CE06, size: 0x8, addend: 0x0, symName: __ZNSt3__112__to_addressB7v160006INS_16reverse_iteratorIP4NodeEEvEENS_5decayIDTclsr19__to_address_helperIT_EE6__callclsr3stdE7declvalIRKS6_EEEEE4typeES8_, symObjAddr: 0x318C, symBinAddr: 0x10000F7B8, symSize: 0x24 }
  - { offsetInCU: 0x7289, offset: 0x3CE3C, size: 0x8, addend: 0x0, symName: __ZNSt3__115__debug_db_swapB7v160006INS_12basic_stringIcNS_11char_traitsIcEENS_9allocatorIcEEEEEEvPT_S8_, symObjAddr: 0x349C, symBinAddr: 0x10000FAC8, symSize: 0x14 }
  - { offsetInCU: 0x72F2, offset: 0x3CEA5, size: 0x8, addend: 0x0, symName: __ZNSt3__119__allocator_destroyB7v160006INS_9allocatorI4NodeEENS_16reverse_iteratorINS4_IPS2_EEEES7_EEvRT_T0_T1_, symObjAddr: 0x3610, symBinAddr: 0x10000FC3C, symSize: 0x70 }
  - { offsetInCU: 0x7357, offset: 0x3CF0A, size: 0x8, addend: 0x0, symName: __ZNSt3__1neB7v160006INS_16reverse_iteratorIP4NodeEES4_EEbRKNS1_IT_EERKNS1_IT0_EE, symObjAddr: 0x36BC, symBinAddr: 0x10000FCE8, symSize: 0x60 }
  - { offsetInCU: 0x73A3, offset: 0x3CF56, size: 0x8, addend: 0x0, symName: __ZNSt3__112__to_addressB7v160006INS_16reverse_iteratorINS1_IP4NodeEEEEvEENS_5decayIDTclsr19__to_address_helperIT_EE6__callclsr3stdE7declvalIRKS7_EEEEE4typeES9_, symObjAddr: 0x371C, symBinAddr: 0x10000FD48, symSize: 0x24 }
  - { offsetInCU: 0x7403, offset: 0x3CFB6, size: 0x8, addend: 0x0, symName: __ZNSt3__122__make_exception_guardB7v160006INS_6vectorI4NodeNS_9allocatorIS2_EEE16__destroy_vectorEEENS_28__exception_guard_exceptionsIT_EES8_, symObjAddr: 0x3EF4, symBinAddr: 0x100010520, symSize: 0x40 }
  - { offsetInCU: 0x7438, offset: 0x3CFEB, size: 0x8, addend: 0x0, symName: __ZNSt3__130__uninitialized_allocator_copyB7v160006INS_9allocatorI4NodeEEPS2_S4_S4_EET2_RT_T0_T1_S5_, symObjAddr: 0x4170, symBinAddr: 0x10001079C, symSize: 0xF4 }
  - { offsetInCU: 0x74D8, offset: 0x3D08B, size: 0x8, addend: 0x0, symName: __ZNSt3__122__make_exception_guardB7v160006INS_29_AllocatorDestroyRangeReverseINS_9allocatorI4NodeEEPS3_EEEENS_28__exception_guard_exceptionsIT_EES8_, symObjAddr: 0x4264, symBinAddr: 0x100010890, symSize: 0x4C }
  - { offsetInCU: 0x750E, offset: 0x3D0C1, size: 0x8, addend: 0x0, symName: __ZNSt3__119__allocator_destroyB7v160006INS_9allocatorI4NodeEENS_16reverse_iteratorIPS2_EES6_EEvRT_T0_T1_, symObjAddr: 0x44F4, symBinAddr: 0x100010B20, symSize: 0x70 }
  - { offsetInCU: 0x7571, offset: 0x3D124, size: 0x8, addend: 0x0, symName: __ZNSt3__119__allocate_at_leastB7v160006INS_9allocatorINS_6vectorI4NodeNS1_IS3_EEEEEEEENS_19__allocation_resultINS_16allocator_traitsIT_E7pointerEEERS9_m, symObjAddr: 0x4A44, symBinAddr: 0x100011070, symSize: 0x40 }
  - { offsetInCU: 0x75B4, offset: 0x3D167, size: 0x8, addend: 0x0, symName: __ZNSt3__142__uninitialized_allocator_move_if_noexceptB7v160006INS_9allocatorINS_6vectorI4NodeNS1_IS3_EEEEEENS_16reverse_iteratorIPS5_EES9_S9_EET2_RT_T0_T1_SA_, symObjAddr: 0x4CEC, symBinAddr: 0x100011318, symSize: 0x12C }
  - { offsetInCU: 0x7656, offset: 0x3D209, size: 0x8, addend: 0x0, symName: __ZNSt3__14swapB7v160006IPNS_6vectorI4NodeNS_9allocatorIS2_EEEEEENS_9enable_ifIXaasr21is_move_constructibleIT_EE5valuesr18is_move_assignableIS8_EE5valueEvE4typeERS8_SB_, symObjAddr: 0x4E64, symBinAddr: 0x100011490, symSize: 0x3C }
  - { offsetInCU: 0x76A7, offset: 0x3D25A, size: 0x8, addend: 0x0, symName: __ZNSt3__122__make_exception_guardB7v160006INS_29_AllocatorDestroyRangeReverseINS_9allocatorINS_6vectorI4NodeNS2_IS4_EEEEEENS_16reverse_iteratorIPS6_EEEEEENS_28__exception_guard_exceptionsIT_EESD_, symObjAddr: 0x4F68, symBinAddr: 0x100011594, symSize: 0x4C }
  - { offsetInCU: 0x76DD, offset: 0x3D290, size: 0x8, addend: 0x0, symName: __ZNSt3__1neB7v160006IPNS_6vectorI4NodeNS_9allocatorIS2_EEEES6_EEbRKNS_16reverse_iteratorIT_EERKNS7_IT0_EE, symObjAddr: 0x4FF8, symBinAddr: 0x100011624, symSize: 0x48 }
  - { offsetInCU: 0x7729, offset: 0x3D2DC, size: 0x8, addend: 0x0, symName: __ZNSt3__112__to_addressB7v160006INS_16reverse_iteratorIPNS_6vectorI4NodeNS_9allocatorIS3_EEEEEEvEENS_5decayIDTclsr19__to_address_helperIT_EE6__callclsr3stdE7declvalIRKSA_EEEEE4typeESC_, symObjAddr: 0x5074, symBinAddr: 0x1000116A0, symSize: 0x24 }
  - { offsetInCU: 0x775F, offset: 0x3D312, size: 0x8, addend: 0x0, symName: __ZNSt3__115__debug_db_swapB7v160006INS_6vectorI4NodeNS_9allocatorIS2_EEEEEEvPT_S7_, symObjAddr: 0x5304, symBinAddr: 0x100011930, symSize: 0x14 }
  - { offsetInCU: 0x77C8, offset: 0x3D37B, size: 0x8, addend: 0x0, symName: __ZNSt3__119__allocator_destroyB7v160006INS_9allocatorINS_6vectorI4NodeNS1_IS3_EEEEEENS_16reverse_iteratorINS7_IPS5_EEEESA_EEvRT_T0_T1_, symObjAddr: 0x5478, symBinAddr: 0x100011AA4, symSize: 0x70 }
  - { offsetInCU: 0x782D, offset: 0x3D3E0, size: 0x8, addend: 0x0, symName: __ZNSt3__1neB7v160006INS_16reverse_iteratorIPNS_6vectorI4NodeNS_9allocatorIS3_EEEEEES8_EEbRKNS1_IT_EERKNS1_IT0_EE, symObjAddr: 0x5524, symBinAddr: 0x100011B50, symSize: 0x60 }
  - { offsetInCU: 0x7879, offset: 0x3D42C, size: 0x8, addend: 0x0, symName: __ZNSt3__112__to_addressB7v160006INS_16reverse_iteratorINS1_IPNS_6vectorI4NodeNS_9allocatorIS3_EEEEEEEEvEENS_5decayIDTclsr19__to_address_helperIT_EE6__callclsr3stdE7declvalIRKSB_EEEEE4typeESD_, symObjAddr: 0x5584, symBinAddr: 0x100011BB0, symSize: 0x24 }
  - { offsetInCU: 0x7F1F, offset: 0x3DAD2, size: 0x8, addend: 0x0, symName: __ZNSt3__16vectorI4NodeNS_9allocatorIS1_EEE26__swap_out_circular_bufferERNS_14__split_bufferIS1_RS3_EE, symObjAddr: 0x2608, symBinAddr: 0x10000EEE8, symSize: 0x118 }
  - { offsetInCU: 0x7FF8, offset: 0x3DBAB, size: 0x8, addend: 0x0, symName: __ZNSt3__16vectorINS0_I4NodeNS_9allocatorIS1_EEEENS2_IS4_EEE26__swap_out_circular_bufferERNS_14__split_bufferIS4_RS5_EE, symObjAddr: 0x46CC, symBinAddr: 0x100010CF8, symSize: 0x118 }
  - { offsetInCU: 0xA004, offset: 0x3FBB7, size: 0x8, addend: 0x0, symName: __ZN2Ai4MainEv, symObjAddr: 0x0, symBinAddr: 0x10000CE00, symSize: 0x98 }
  - { offsetInCU: 0xA02A, offset: 0x3FBDD, size: 0x8, addend: 0x0, symName: __ZN2Ai5StartEv, symObjAddr: 0x98, symBinAddr: 0x10000CE98, symSize: 0x4F0 }
  - { offsetInCU: 0xA12A, offset: 0x3FCDD, size: 0x8, addend: 0x0, symName: __ZN2Ai13UpdateAndDrawEv, symObjAddr: 0x588, symBinAddr: 0x10000D388, symSize: 0x30C }
  - { offsetInCU: 0xA2CB, offset: 0x3FE7E, size: 0x8, addend: 0x0, symName: __ZNSt3__16vectorINS0_I4NodeNS_9allocatorIS1_EEEENS2_IS4_EEE5clearB7v160006Ev, symObjAddr: 0x894, symBinAddr: 0x10000D694, symSize: 0x54 }
  - { offsetInCU: 0xA300, offset: 0x3FEB3, size: 0x8, addend: 0x0, symName: __ZNSt3__16vectorI4NodeNS_9allocatorIS1_EEEC1B7v160006Ev, symObjAddr: 0x8E8, symBinAddr: 0x10000D6E8, symSize: 0x2C }
  - { offsetInCU: 0xA329, offset: 0x3FEDC, size: 0x8, addend: 0x0, symName: __ZN4NodeC1Eii7Vector25ColorS1_b, symObjAddr: 0x914, symBinAddr: 0x10000D714, symSize: 0x90 }
  - { offsetInCU: 0xA3A5, offset: 0x3FF58, size: 0x8, addend: 0x0, symName: __ZNSt3__16vectorI4NodeNS_9allocatorIS1_EEE9push_backB7v160006ERKS1_, symObjAddr: 0x9A4, symBinAddr: 0x10000D7A4, symSize: 0x6C }
  - { offsetInCU: 0xA3DB, offset: 0x3FF8E, size: 0x8, addend: 0x0, symName: __ZN4NodeD1Ev, symObjAddr: 0xA10, symBinAddr: 0x10000D810, symSize: 0x2C }
  - { offsetInCU: 0xA405, offset: 0x3FFB8, size: 0x8, addend: 0x0, symName: __ZNSt3__16vectorINS0_I4NodeNS_9allocatorIS1_EEEENS2_IS4_EEE9push_backB7v160006ERKS4_, symObjAddr: 0xA3C, symBinAddr: 0x10000D83C, symSize: 0x6C }
  - { offsetInCU: 0xA43B, offset: 0x3FFEE, size: 0x8, addend: 0x0, symName: __ZNSt3__16vectorI4NodeNS_9allocatorIS1_EEED1B7v160006Ev, symObjAddr: 0xAA8, symBinAddr: 0x10000D8A8, symSize: 0x2C }
  - { offsetInCU: 0xA463, offset: 0x40016, size: 0x8, addend: 0x0, symName: __ZN4NodeaSERKS_, symObjAddr: 0xB7C, symBinAddr: 0x10000D8D4, symSize: 0x64 }
  - { offsetInCU: 0xA493, offset: 0x40046, size: 0x8, addend: 0x0, symName: __ZNSt3__112basic_stringIcNS_11char_traitsIcEENS_9allocatorIcEEEaSB7v160006EPKc, symObjAddr: 0xBE0, symBinAddr: 0x10000D938, symSize: 0x2C }
  - { offsetInCU: 0xA4C7, offset: 0x4007A, size: 0x8, addend: 0x0, symName: __ZN4Node4DrawEv, symObjAddr: 0xC0C, symBinAddr: 0x10000D964, symSize: 0x1A0 }
  - { offsetInCU: 0xA516, offset: 0x400C9, size: 0x8, addend: 0x0, symName: __ZN4Node8DrawPathE5Color, symObjAddr: 0xE58, symBinAddr: 0x10000DB04, symSize: 0x6C }
  - { offsetInCU: 0xA549, offset: 0x400FC, size: 0x8, addend: 0x0, symName: __ZN4NodeC2Eii7Vector25ColorS1_b, symObjAddr: 0xEE4, symBinAddr: 0x10000DB70, symSize: 0xC4 }
  - { offsetInCU: 0xA5CB, offset: 0x4017E, size: 0x8, addend: 0x0, symName: __ZNSt3__112basic_stringIcNS_11char_traitsIcEENS_9allocatorIcEEEC1B7v160006IDnEEPKc, symObjAddr: 0xFA8, symBinAddr: 0x10000DC34, symSize: 0x34 }
  - { offsetInCU: 0xA608, offset: 0x401BB, size: 0x8, addend: 0x0, symName: __ZNSt3__112basic_stringIcNS_11char_traitsIcEENS_9allocatorIcEEEC2B7v160006IDnEEPKc, symObjAddr: 0xFDC, symBinAddr: 0x10000DC68, symSize: 0x60 }
  - { offsetInCU: 0xA64A, offset: 0x401FD, size: 0x8, addend: 0x0, symName: __ZN4NodeD2Ev, symObjAddr: 0x11A8, symBinAddr: 0x10000DCC8, symSize: 0x30 }
  - { offsetInCU: 0xA675, offset: 0x40228, size: 0x8, addend: 0x0, symName: __ZNSt3__112basic_stringIcNS_11char_traitsIcEENS_9allocatorIcEEEaSB7v160006EOS5_, symObjAddr: 0x11D8, symBinAddr: 0x10000DCF8, symSize: 0x34 }
  - { offsetInCU: 0xA6A9, offset: 0x4025C, size: 0x8, addend: 0x0, symName: __ZNKSt3__112basic_stringIcNS_11char_traitsIcEENS_9allocatorIcEEE5c_strB7v160006Ev, symObjAddr: 0x120C, symBinAddr: 0x10000DD2C, symSize: 0x24 }
  - { offsetInCU: 0xA6CD, offset: 0x40280, size: 0x8, addend: 0x0, symName: __ZNSt3__112basic_stringIcNS_11char_traitsIcEENS_9allocatorIcEEE13__move_assignB7v160006ERS5_NS_17integral_constantIbLb1EEE, symObjAddr: 0x1230, symBinAddr: 0x10000DD50, symSize: 0xC8 }
  - { offsetInCU: 0xA70E, offset: 0x402C1, size: 0x8, addend: 0x0, symName: __ZNSt3__116allocator_traitsINS_9allocatorIcEEE10deallocateB7v160006ERS2_Pcm, symObjAddr: 0x1330, symBinAddr: 0x10000DE18, symSize: 0x34 }
  - { offsetInCU: 0xA750, offset: 0x40303, size: 0x8, addend: 0x0, symName: __ZNSt3__112basic_stringIcNS_11char_traitsIcEENS_9allocatorIcEEE7__allocB7v160006Ev, symObjAddr: 0x1364, symBinAddr: 0x10000DE4C, symSize: 0x24 }
  - { offsetInCU: 0xA775, offset: 0x40328, size: 0x8, addend: 0x0, symName: __ZNSt3__112basic_stringIcNS_11char_traitsIcEENS_9allocatorIcEEE18__get_long_pointerB7v160006Ev, symObjAddr: 0x1388, symBinAddr: 0x10000DE70, symSize: 0x28 }
  - { offsetInCU: 0xA79A, offset: 0x4034D, size: 0x8, addend: 0x0, symName: __ZNKSt3__112basic_stringIcNS_11char_traitsIcEENS_9allocatorIcEEE14__get_long_capB7v160006Ev, symObjAddr: 0x13B0, symBinAddr: 0x10000DE98, symSize: 0x30 }
  - { offsetInCU: 0xA7BF, offset: 0x40372, size: 0x8, addend: 0x0, symName: __ZNSt3__112basic_stringIcNS_11char_traitsIcEENS_9allocatorIcEEE19__move_assign_allocB7v160006ERS5_, symObjAddr: 0x13E0, symBinAddr: 0x10000DEC8, symSize: 0x2C }
  - { offsetInCU: 0xA7F3, offset: 0x403A6, size: 0x8, addend: 0x0, symName: __ZNSt3__117__compressed_pairINS_12basic_stringIcNS_11char_traitsIcEENS_9allocatorIcEEE5__repES5_E5firstB7v160006Ev, symObjAddr: 0x140C, symBinAddr: 0x10000DEF4, symSize: 0x24 }
  - { offsetInCU: 0xA818, offset: 0x403CB, size: 0x8, addend: 0x0, symName: __ZNSt3__112basic_stringIcNS_11char_traitsIcEENS_9allocatorIcEEE16__set_short_sizeB7v160006Em, symObjAddr: 0x1430, symBinAddr: 0x10000DF18, symSize: 0x78 }
  - { offsetInCU: 0xA84C, offset: 0x403FF, size: 0x8, addend: 0x0, symName: __ZNSt3__111char_traitsIcE6assignERcRKc, symObjAddr: 0x14A8, symBinAddr: 0x10000DF90, symSize: 0x24 }
  - { offsetInCU: 0xA87D, offset: 0x40430, size: 0x8, addend: 0x0, symName: __ZNSt3__112basic_stringIcNS_11char_traitsIcEENS_9allocatorIcEEE19__get_short_pointerB7v160006Ev, symObjAddr: 0x14CC, symBinAddr: 0x10000DFB4, symSize: 0x28 }
  - { offsetInCU: 0xA8A2, offset: 0x40455, size: 0x8, addend: 0x0, symName: __ZNSt3__19allocatorIcE10deallocateB7v160006EPcm, symObjAddr: 0x152C, symBinAddr: 0x10000DFDC, symSize: 0x40 }
  - { offsetInCU: 0xA8E3, offset: 0x40496, size: 0x8, addend: 0x0, symName: __ZNSt3__117__compressed_pairINS_12basic_stringIcNS_11char_traitsIcEENS_9allocatorIcEEE5__repES5_E6secondB7v160006Ev, symObjAddr: 0x15E8, symBinAddr: 0x10000E01C, symSize: 0x24 }
  - { offsetInCU: 0xA908, offset: 0x404BB, size: 0x8, addend: 0x0, symName: __ZNSt3__122__compressed_pair_elemINS_9allocatorIcEELi1ELb1EE5__getB7v160006Ev, symObjAddr: 0x160C, symBinAddr: 0x10000E040, symSize: 0x14 }
  - { offsetInCU: 0xA92D, offset: 0x404E0, size: 0x8, addend: 0x0, symName: __ZNSt3__112basic_stringIcNS_11char_traitsIcEENS_9allocatorIcEEE19__move_assign_allocB7v160006ERS5_NS_17integral_constantIbLb1EEE, symObjAddr: 0x1620, symBinAddr: 0x10000E054, symSize: 0x38 }
  - { offsetInCU: 0xA96C, offset: 0x4051F, size: 0x8, addend: 0x0, symName: __ZNSt3__122__compressed_pair_elemINS_12basic_stringIcNS_11char_traitsIcEENS_9allocatorIcEEE5__repELi0ELb0EE5__getB7v160006Ev, symObjAddr: 0x1658, symBinAddr: 0x10000E08C, symSize: 0x14 }
  - { offsetInCU: 0xA991, offset: 0x40544, size: 0x8, addend: 0x0, symName: __ZNSt3__114pointer_traitsIPcE10pointer_toB7v160006ERc, symObjAddr: 0x166C, symBinAddr: 0x10000E0A0, symSize: 0x14 }
  - { offsetInCU: 0xA9B4, offset: 0x40567, size: 0x8, addend: 0x0, symName: __ZNSt3__16vectorINS0_I4NodeNS_9allocatorIS1_EEEENS2_IS4_EEE7__clearB7v160006Ev, symObjAddr: 0x17D4, symBinAddr: 0x10000E0B4, symSize: 0x28 }
  - { offsetInCU: 0xA9D9, offset: 0x4058C, size: 0x8, addend: 0x0, symName: __ZNKSt3__16vectorINS0_I4NodeNS_9allocatorIS1_EEEENS2_IS4_EEE17__annotate_shrinkB7v160006Em, symObjAddr: 0x17FC, symBinAddr: 0x10000E0DC, symSize: 0xD0 }
  - { offsetInCU: 0xAA0D, offset: 0x405C0, size: 0x8, addend: 0x0, symName: __ZNSt3__16vectorINS0_I4NodeNS_9allocatorIS1_EEEENS2_IS4_EEE22__base_destruct_at_endB7v160006EPS4_, symObjAddr: 0x18DC, symBinAddr: 0x10000E1BC, symSize: 0x8C }
  - { offsetInCU: 0xAA51, offset: 0x40604, size: 0x8, addend: 0x0, symName: __ZNSt3__116allocator_traitsINS_9allocatorINS_6vectorI4NodeNS1_IS3_EEEEEEE7destroyB7v160006IS5_vEEvRS6_PT_, symObjAddr: 0x1968, symBinAddr: 0x10000E248, symSize: 0x2C }
  - { offsetInCU: 0xAA8E, offset: 0x40641, size: 0x8, addend: 0x0, symName: __ZNSt3__16vectorINS0_I4NodeNS_9allocatorIS1_EEEENS2_IS4_EEE7__allocB7v160006Ev, symObjAddr: 0x1994, symBinAddr: 0x10000E274, symSize: 0x28 }
  - { offsetInCU: 0xAAB3, offset: 0x40666, size: 0x8, addend: 0x0, symName: __ZNSt3__19allocatorINS_6vectorI4NodeNS0_IS2_EEEEE7destroyB7v160006EPS4_, symObjAddr: 0x19D0, symBinAddr: 0x10000E2B0, symSize: 0x28 }
  - { offsetInCU: 0xAAE6, offset: 0x40699, size: 0x8, addend: 0x0, symName: __ZNSt3__117__compressed_pairIPNS_6vectorI4NodeNS_9allocatorIS2_EEEENS3_IS5_EEE6secondB7v160006Ev, symObjAddr: 0x19F8, symBinAddr: 0x10000E2D8, symSize: 0x24 }
  - { offsetInCU: 0xAB0B, offset: 0x406BE, size: 0x8, addend: 0x0, symName: __ZNSt3__122__compressed_pair_elemINS_9allocatorINS_6vectorI4NodeNS1_IS3_EEEEEELi1ELb1EE5__getB7v160006Ev, symObjAddr: 0x1A1C, symBinAddr: 0x10000E2FC, symSize: 0x14 }
  - { offsetInCU: 0xAB30, offset: 0x406E3, size: 0x8, addend: 0x0, symName: __ZNKSt3__16vectorINS0_I4NodeNS_9allocatorIS1_EEEENS2_IS4_EEE31__annotate_contiguous_containerB7v160006EPKvS8_S8_S8_, symObjAddr: 0x1A30, symBinAddr: 0x10000E310, symSize: 0x20 }
  - { offsetInCU: 0xAB81, offset: 0x40734, size: 0x8, addend: 0x0, symName: __ZNKSt3__16vectorINS0_I4NodeNS_9allocatorIS1_EEEENS2_IS4_EEE4dataB7v160006Ev, symObjAddr: 0x1A50, symBinAddr: 0x10000E330, symSize: 0x28 }
  - { offsetInCU: 0xABA6, offset: 0x40759, size: 0x8, addend: 0x0, symName: __ZNKSt3__16vectorINS0_I4NodeNS_9allocatorIS1_EEEENS2_IS4_EEE8capacityB7v160006Ev, symObjAddr: 0x1A78, symBinAddr: 0x10000E358, symSize: 0x40 }
  - { offsetInCU: 0xABCB, offset: 0x4077E, size: 0x8, addend: 0x0, symName: __ZNKSt3__16vectorINS0_I4NodeNS_9allocatorIS1_EEEENS2_IS4_EEE9__end_capB7v160006Ev, symObjAddr: 0x1AB8, symBinAddr: 0x10000E398, symSize: 0x28 }
  - { offsetInCU: 0xABF0, offset: 0x407A3, size: 0x8, addend: 0x0, symName: __ZNKSt3__117__compressed_pairIPNS_6vectorI4NodeNS_9allocatorIS2_EEEENS3_IS5_EEE5firstB7v160006Ev, symObjAddr: 0x1AE0, symBinAddr: 0x10000E3C0, symSize: 0x24 }
  - { offsetInCU: 0xAC15, offset: 0x407C8, size: 0x8, addend: 0x0, symName: __ZNKSt3__122__compressed_pair_elemIPNS_6vectorI4NodeNS_9allocatorIS2_EEEELi0ELb0EE5__getB7v160006Ev, symObjAddr: 0x1B04, symBinAddr: 0x10000E3E4, symSize: 0x14 }
  - { offsetInCU: 0xAC3A, offset: 0x407ED, size: 0x8, addend: 0x0, symName: __ZNSt3__16vectorI4NodeNS_9allocatorIS1_EEEC2B7v160006Ev, symObjAddr: 0x1B18, symBinAddr: 0x10000E3F8, symSize: 0x58 }
  - { offsetInCU: 0xAC68, offset: 0x4081B, size: 0x8, addend: 0x0, symName: __ZNSt3__117__compressed_pairIP4NodeNS_9allocatorIS1_EEEC1B7v160006IDnNS_18__default_init_tagEEEOT_OT0_, symObjAddr: 0x1B70, symBinAddr: 0x10000E450, symSize: 0x3C }
  - { offsetInCU: 0xACBF, offset: 0x40872, size: 0x8, addend: 0x0, symName: __ZNSt3__117__compressed_pairIP4NodeNS_9allocatorIS1_EEEC2B7v160006IDnNS_18__default_init_tagEEEOT_OT0_, symObjAddr: 0x1BBC, symBinAddr: 0x10000E49C, symSize: 0x40 }
  - { offsetInCU: 0xAD16, offset: 0x408C9, size: 0x8, addend: 0x0, symName: __ZNSt3__122__compressed_pair_elemIP4NodeLi0ELb0EEC2B7v160006IDnvEEOT_, symObjAddr: 0x1BFC, symBinAddr: 0x10000E4DC, symSize: 0x1C }
  - { offsetInCU: 0xAD57, offset: 0x4090A, size: 0x8, addend: 0x0, symName: __ZNSt3__122__compressed_pair_elemINS_9allocatorI4NodeEELi1ELb1EEC2B7v160006ENS_18__default_init_tagE, symObjAddr: 0x1C18, symBinAddr: 0x10000E4F8, symSize: 0x2C }
  - { offsetInCU: 0xAD8B, offset: 0x4093E, size: 0x8, addend: 0x0, symName: __ZNSt3__19allocatorI4NodeEC2B7v160006Ev, symObjAddr: 0x1C44, symBinAddr: 0x10000E524, symSize: 0x2C }
  - { offsetInCU: 0xADB4, offset: 0x40967, size: 0x8, addend: 0x0, symName: __ZNSt3__116__non_trivial_ifILb1ENS_9allocatorI4NodeEEEC2B7v160006Ev, symObjAddr: 0x1C70, symBinAddr: 0x10000E550, symSize: 0x14 }
  - { offsetInCU: 0xADDD, offset: 0x40990, size: 0x8, addend: 0x0, symName: __ZNSt3__16vectorI4NodeNS_9allocatorIS1_EEED2B7v160006Ev, symObjAddr: 0x1C84, symBinAddr: 0x10000E564, symSize: 0x44 }
  - { offsetInCU: 0xAE06, offset: 0x409B9, size: 0x8, addend: 0x0, symName: __ZNSt3__16vectorI4NodeNS_9allocatorIS1_EEE16__destroy_vectorC1ERS4_, symObjAddr: 0x1CC8, symBinAddr: 0x10000E5A8, symSize: 0x34 }
  - { offsetInCU: 0xAE3E, offset: 0x409F1, size: 0x8, addend: 0x0, symName: __ZNSt3__16vectorI4NodeNS_9allocatorIS1_EEE16__destroy_vectorclB7v160006Ev, symObjAddr: 0x1CFC, symBinAddr: 0x10000E5DC, symSize: 0x9C }
  - { offsetInCU: 0xAE63, offset: 0x40A16, size: 0x8, addend: 0x0, symName: __ZNSt3__16vectorI4NodeNS_9allocatorIS1_EEE16__destroy_vectorC2ERS4_, symObjAddr: 0x1D98, symBinAddr: 0x10000E678, symSize: 0x20 }
  - { offsetInCU: 0xAE9B, offset: 0x40A4E, size: 0x8, addend: 0x0, symName: __ZNKSt3__16vectorI4NodeNS_9allocatorIS1_EEE17__annotate_deleteB7v160006Ev, symObjAddr: 0x1DB8, symBinAddr: 0x10000E698, symSize: 0xD4 }
  - { offsetInCU: 0xAEC0, offset: 0x40A73, size: 0x8, addend: 0x0, symName: __ZNSt3__16vectorI4NodeNS_9allocatorIS1_EEE7__clearB7v160006Ev, symObjAddr: 0x1E9C, symBinAddr: 0x10000E77C, symSize: 0x28 }
  - { offsetInCU: 0xAEE5, offset: 0x40A98, size: 0x8, addend: 0x0, symName: __ZNSt3__116allocator_traitsINS_9allocatorI4NodeEEE10deallocateB7v160006ERS3_PS2_m, symObjAddr: 0x1EC4, symBinAddr: 0x10000E7A4, symSize: 0x34 }
  - { offsetInCU: 0xAF27, offset: 0x40ADA, size: 0x8, addend: 0x0, symName: __ZNSt3__16vectorI4NodeNS_9allocatorIS1_EEE7__allocB7v160006Ev, symObjAddr: 0x1EF8, symBinAddr: 0x10000E7D8, symSize: 0x28 }
  - { offsetInCU: 0xAF4C, offset: 0x40AFF, size: 0x8, addend: 0x0, symName: __ZNKSt3__16vectorI4NodeNS_9allocatorIS1_EEE8capacityB7v160006Ev, symObjAddr: 0x1F20, symBinAddr: 0x10000E800, symSize: 0x40 }
  - { offsetInCU: 0xAF71, offset: 0x40B24, size: 0x8, addend: 0x0, symName: __ZNKSt3__16vectorI4NodeNS_9allocatorIS1_EEE31__annotate_contiguous_containerB7v160006EPKvS6_S6_S6_, symObjAddr: 0x1F60, symBinAddr: 0x10000E840, symSize: 0x20 }
  - { offsetInCU: 0xAFC2, offset: 0x40B75, size: 0x8, addend: 0x0, symName: __ZNKSt3__16vectorI4NodeNS_9allocatorIS1_EEE4dataB7v160006Ev, symObjAddr: 0x1F80, symBinAddr: 0x10000E860, symSize: 0x28 }
  - { offsetInCU: 0xAFE7, offset: 0x40B9A, size: 0x8, addend: 0x0, symName: __ZNSt3__16vectorI4NodeNS_9allocatorIS1_EEE22__base_destruct_at_endB7v160006EPS1_, symObjAddr: 0x1FBC, symBinAddr: 0x10000E89C, symSize: 0x8C }
  - { offsetInCU: 0xB02B, offset: 0x40BDE, size: 0x8, addend: 0x0, symName: __ZNSt3__116allocator_traitsINS_9allocatorI4NodeEEE7destroyB7v160006IS2_vEEvRS3_PT_, symObjAddr: 0x2048, symBinAddr: 0x10000E928, symSize: 0x2C }
  - { offsetInCU: 0xB068, offset: 0x40C1B, size: 0x8, addend: 0x0, symName: __ZNSt3__19allocatorI4NodeE7destroyB7v160006EPS1_, symObjAddr: 0x2074, symBinAddr: 0x10000E954, symSize: 0x28 }
  - { offsetInCU: 0xB09B, offset: 0x40C4E, size: 0x8, addend: 0x0, symName: __ZNSt3__19allocatorI4NodeE10deallocateB7v160006EPS1_m, symObjAddr: 0x209C, symBinAddr: 0x10000E97C, symSize: 0x44 }
  - { offsetInCU: 0xB0DC, offset: 0x40C8F, size: 0x8, addend: 0x0, symName: __ZNSt3__117__compressed_pairIP4NodeNS_9allocatorIS1_EEE6secondB7v160006Ev, symObjAddr: 0x20E0, symBinAddr: 0x10000E9C0, symSize: 0x24 }
  - { offsetInCU: 0xB101, offset: 0x40CB4, size: 0x8, addend: 0x0, symName: __ZNSt3__122__compressed_pair_elemINS_9allocatorI4NodeEELi1ELb1EE5__getB7v160006Ev, symObjAddr: 0x2104, symBinAddr: 0x10000E9E4, symSize: 0x14 }
  - { offsetInCU: 0xB126, offset: 0x40CD9, size: 0x8, addend: 0x0, symName: __ZNKSt3__16vectorI4NodeNS_9allocatorIS1_EEE9__end_capB7v160006Ev, symObjAddr: 0x2118, symBinAddr: 0x10000E9F8, symSize: 0x28 }
  - { offsetInCU: 0xB14B, offset: 0x40CFE, size: 0x8, addend: 0x0, symName: __ZNKSt3__117__compressed_pairIP4NodeNS_9allocatorIS1_EEE5firstB7v160006Ev, symObjAddr: 0x2140, symBinAddr: 0x10000EA20, symSize: 0x24 }
  - { offsetInCU: 0xB170, offset: 0x40D23, size: 0x8, addend: 0x0, symName: __ZNKSt3__122__compressed_pair_elemIP4NodeLi0ELb0EE5__getB7v160006Ev, symObjAddr: 0x2164, symBinAddr: 0x10000EA44, symSize: 0x14 }
  - { offsetInCU: 0xB195, offset: 0x40D48, size: 0x8, addend: 0x0, symName: __ZNSt3__16vectorI4NodeNS_9allocatorIS1_EEE9__end_capB7v160006Ev, symObjAddr: 0x2178, symBinAddr: 0x10000EA58, symSize: 0x28 }
  - { offsetInCU: 0xB1BA, offset: 0x40D6D, size: 0x8, addend: 0x0, symName: __ZNSt3__16vectorI4NodeNS_9allocatorIS1_EEE22__construct_one_at_endB7v160006IJRKS1_EEEvDpOT_, symObjAddr: 0x21A0, symBinAddr: 0x10000EA80, symSize: 0x90 }
  - { offsetInCU: 0xB208, offset: 0x40DBB, size: 0x8, addend: 0x0, symName: __ZNSt3__16vectorI4NodeNS_9allocatorIS1_EEE21__push_back_slow_pathIRKS1_EEvOT_, symObjAddr: 0x2230, symBinAddr: 0x10000EB10, symSize: 0xD8 }
  - { offsetInCU: 0xB267, offset: 0x40E1A, size: 0x8, addend: 0x0, symName: __ZNSt3__117__compressed_pairIP4NodeNS_9allocatorIS1_EEE5firstB7v160006Ev, symObjAddr: 0x2308, symBinAddr: 0x10000EBE8, symSize: 0x24 }
  - { offsetInCU: 0xB28C, offset: 0x40E3F, size: 0x8, addend: 0x0, symName: __ZNSt3__122__compressed_pair_elemIP4NodeLi0ELb0EE5__getB7v160006Ev, symObjAddr: 0x232C, symBinAddr: 0x10000EC0C, symSize: 0x14 }
  - { offsetInCU: 0xB2CA, offset: 0x40E7D, size: 0x8, addend: 0x0, symName: __ZNSt3__16vectorI4NodeNS_9allocatorIS1_EEE21_ConstructTransactionC1B7v160006ERS4_m, symObjAddr: 0x2340, symBinAddr: 0x10000EC20, symSize: 0x3C }
  - { offsetInCU: 0xB311, offset: 0x40EC4, size: 0x8, addend: 0x0, symName: __ZNSt3__116allocator_traitsINS_9allocatorI4NodeEEE9constructB7v160006IS2_JRKS2_EvEEvRS3_PT_DpOT0_, symObjAddr: 0x237C, symBinAddr: 0x10000EC5C, symSize: 0x34 }
  - { offsetInCU: 0xB368, offset: 0x40F1B, size: 0x8, addend: 0x0, symName: __ZNSt3__16vectorI4NodeNS_9allocatorIS1_EEE21_ConstructTransactionD1B7v160006Ev, symObjAddr: 0x23B0, symBinAddr: 0x10000EC90, symSize: 0x2C }
  - { offsetInCU: 0xB391, offset: 0x40F44, size: 0x8, addend: 0x0, symName: __ZNSt3__16vectorI4NodeNS_9allocatorIS1_EEE21_ConstructTransactionC2B7v160006ERS4_m, symObjAddr: 0x23DC, symBinAddr: 0x10000ECBC, symSize: 0x4C }
  - { offsetInCU: 0xB3D8, offset: 0x40F8B, size: 0x8, addend: 0x0, symName: __ZNSt3__19allocatorI4NodeE9constructB7v160006IS1_JRKS1_EEEvPT_DpOT0_, symObjAddr: 0x2428, symBinAddr: 0x10000ED08, symSize: 0x30 }
  - { offsetInCU: 0xB42D, offset: 0x40FE0, size: 0x8, addend: 0x0, symName: __ZN4NodeC1ERKS_, symObjAddr: 0x2458, symBinAddr: 0x10000ED38, symSize: 0x34 }
  - { offsetInCU: 0xB461, offset: 0x41014, size: 0x8, addend: 0x0, symName: __ZN4NodeC2ERKS_, symObjAddr: 0x248C, symBinAddr: 0x10000ED6C, symSize: 0x64 }
  - { offsetInCU: 0xB495, offset: 0x41048, size: 0x8, addend: 0x0, symName: __ZNSt3__16vectorI4NodeNS_9allocatorIS1_EEE21_ConstructTransactionD2B7v160006Ev, symObjAddr: 0x24F0, symBinAddr: 0x10000EDD0, symSize: 0x20 }
  - { offsetInCU: 0xB4BD, offset: 0x41070, size: 0x8, addend: 0x0, symName: __ZNKSt3__16vectorI4NodeNS_9allocatorIS1_EEE11__recommendB7v160006Em, symObjAddr: 0x2510, symBinAddr: 0x10000EDF0, symSize: 0xB4 }
  - { offsetInCU: 0xB513, offset: 0x410C6, size: 0x8, addend: 0x0, symName: __ZNSt3__114__split_bufferI4NodeRNS_9allocatorIS1_EEEC1EmmS4_, symObjAddr: 0x25C4, symBinAddr: 0x10000EEA4, symSize: 0x44 }
  - { offsetInCU: 0xB568, offset: 0x4111B, size: 0x8, addend: 0x0, symName: __ZNSt3__114__split_bufferI4NodeRNS_9allocatorIS1_EEED1Ev, symObjAddr: 0x2720, symBinAddr: 0x10000F000, symSize: 0x2C }
  - { offsetInCU: 0xB592, offset: 0x41145, size: 0x8, addend: 0x0, symName: __ZNKSt3__16vectorI4NodeNS_9allocatorIS1_EEE8max_sizeEv, symObjAddr: 0x274C, symBinAddr: 0x10000F02C, symSize: 0x60 }
  - { offsetInCU: 0xB5B9, offset: 0x4116C, size: 0x8, addend: 0x0, symName: __ZNKSt3__16vectorI4NodeNS_9allocatorIS1_EEE20__throw_length_errorB7v160006Ev, symObjAddr: 0x27AC, symBinAddr: 0x10000F08C, symSize: 0x1C }
  - { offsetInCU: 0xB5E8, offset: 0x4119B, size: 0x8, addend: 0x0, symName: __ZNSt3__116allocator_traitsINS_9allocatorI4NodeEEE8max_sizeB7v160006IS3_vEEmRKS3_, symObjAddr: 0x2820, symBinAddr: 0x10000F0A8, symSize: 0x24 }
  - { offsetInCU: 0xB616, offset: 0x411C9, size: 0x8, addend: 0x0, symName: __ZNKSt3__16vectorI4NodeNS_9allocatorIS1_EEE7__allocB7v160006Ev, symObjAddr: 0x2844, symBinAddr: 0x10000F0CC, symSize: 0x28 }
  - { offsetInCU: 0xB63B, offset: 0x411EE, size: 0x8, addend: 0x0, symName: __ZNKSt3__19allocatorI4NodeE8max_sizeB7v160006Ev, symObjAddr: 0x2908, symBinAddr: 0x10000F0F4, symSize: 0x20 }
  - { offsetInCU: 0xB660, offset: 0x41213, size: 0x8, addend: 0x0, symName: __ZNKSt3__117__compressed_pairIP4NodeNS_9allocatorIS1_EEE6secondB7v160006Ev, symObjAddr: 0x2928, symBinAddr: 0x10000F114, symSize: 0x24 }
  - { offsetInCU: 0xB685, offset: 0x41238, size: 0x8, addend: 0x0, symName: __ZNKSt3__122__compressed_pair_elemINS_9allocatorI4NodeEELi1ELb1EE5__getB7v160006Ev, symObjAddr: 0x294C, symBinAddr: 0x10000F138, symSize: 0x14 }
  - { offsetInCU: 0xB6AA, offset: 0x4125D, size: 0x8, addend: 0x0, symName: __ZNSt3__114__split_bufferI4NodeRNS_9allocatorIS1_EEEC2EmmS4_, symObjAddr: 0x2AA0, symBinAddr: 0x10000F14C, symSize: 0xE0 }
  - { offsetInCU: 0xB71D, offset: 0x412D0, size: 0x8, addend: 0x0, symName: __ZNSt3__117__compressed_pairIP4NodeRNS_9allocatorIS1_EEEC1B7v160006IDnS5_EEOT_OT0_, symObjAddr: 0x2B80, symBinAddr: 0x10000F22C, symSize: 0x3C }
  - { offsetInCU: 0xB774, offset: 0x41327, size: 0x8, addend: 0x0, symName: __ZNSt3__114__split_bufferI4NodeRNS_9allocatorIS1_EEE7__allocB7v160006Ev, symObjAddr: 0x2BFC, symBinAddr: 0x10000F2A8, symSize: 0x28 }
  - { offsetInCU: 0xB799, offset: 0x4134C, size: 0x8, addend: 0x0, symName: __ZNSt3__114__split_bufferI4NodeRNS_9allocatorIS1_EEE9__end_capB7v160006Ev, symObjAddr: 0x2C24, symBinAddr: 0x10000F2D0, symSize: 0x28 }
  - { offsetInCU: 0xB7BE, offset: 0x41371, size: 0x8, addend: 0x0, symName: __ZNSt3__117__compressed_pairIP4NodeRNS_9allocatorIS1_EEEC2B7v160006IDnS5_EEOT_OT0_, symObjAddr: 0x2C4C, symBinAddr: 0x10000F2F8, symSize: 0x48 }
  - { offsetInCU: 0xB815, offset: 0x413C8, size: 0x8, addend: 0x0, symName: __ZNSt3__122__compressed_pair_elemIRNS_9allocatorI4NodeEELi1ELb0EEC2B7v160006IS4_vEEOT_, symObjAddr: 0x2C94, symBinAddr: 0x10000F340, symSize: 0x20 }
  - { offsetInCU: 0xB856, offset: 0x41409, size: 0x8, addend: 0x0, symName: __ZNSt3__19allocatorI4NodeE8allocateB7v160006Em, symObjAddr: 0x2CB4, symBinAddr: 0x10000F360, symSize: 0x5C }
  - { offsetInCU: 0xB889, offset: 0x4143C, size: 0x8, addend: 0x0, symName: __ZNSt3__117__compressed_pairIP4NodeRNS_9allocatorIS1_EEE6secondB7v160006Ev, symObjAddr: 0x2D90, symBinAddr: 0x10000F3BC, symSize: 0x28 }
  - { offsetInCU: 0xB8AE, offset: 0x41461, size: 0x8, addend: 0x0, symName: __ZNSt3__122__compressed_pair_elemIRNS_9allocatorI4NodeEELi1ELb0EE5__getB7v160006Ev, symObjAddr: 0x2DB8, symBinAddr: 0x10000F3E4, symSize: 0x18 }
  - { offsetInCU: 0xB8D3, offset: 0x41486, size: 0x8, addend: 0x0, symName: __ZNSt3__117__compressed_pairIP4NodeRNS_9allocatorIS1_EEE5firstB7v160006Ev, symObjAddr: 0x2DD0, symBinAddr: 0x10000F3FC, symSize: 0x24 }
  - { offsetInCU: 0xB8F8, offset: 0x414AB, size: 0x8, addend: 0x0, symName: __ZNSt3__116reverse_iteratorIP4NodeEC1B7v160006ES2_, symObjAddr: 0x2F20, symBinAddr: 0x10000F54C, symSize: 0x34 }
  - { offsetInCU: 0xB92F, offset: 0x414E2, size: 0x8, addend: 0x0, symName: __ZNKSt3__116reverse_iteratorIP4NodeE4baseB7v160006Ev, symObjAddr: 0x2F54, symBinAddr: 0x10000F580, symSize: 0x18 }
  - { offsetInCU: 0xB954, offset: 0x41507, size: 0x8, addend: 0x0, symName: __ZNKSt3__16vectorI4NodeNS_9allocatorIS1_EEE14__annotate_newB7v160006Em, symObjAddr: 0x2FA8, symBinAddr: 0x10000F5D4, symSize: 0xC8 }
  - { offsetInCU: 0xB988, offset: 0x4153B, size: 0x8, addend: 0x0, symName: __ZNSt3__129_AllocatorDestroyRangeReverseINS_9allocatorI4NodeEENS_16reverse_iteratorIPS2_EEEC1B7v160006ERS3_RS6_S9_, symObjAddr: 0x30CC, symBinAddr: 0x10000F6F8, symSize: 0x44 }
  - { offsetInCU: 0xB9E3, offset: 0x41596, size: 0x8, addend: 0x0, symName: __ZNSt3__116allocator_traitsINS_9allocatorI4NodeEEE9constructB7v160006IS2_JS2_EvEEvRS3_PT_DpOT0_, symObjAddr: 0x3158, symBinAddr: 0x10000F784, symSize: 0x34 }
  - { offsetInCU: 0xBA3A, offset: 0x415ED, size: 0x8, addend: 0x0, symName: __ZNKSt3__116reverse_iteratorIP4NodeEdeB7v160006Ev, symObjAddr: 0x31B0, symBinAddr: 0x10000F7DC, symSize: 0x28 }
  - { offsetInCU: 0xBA6D, offset: 0x41620, size: 0x8, addend: 0x0, symName: __ZNSt3__116reverse_iteratorIP4NodeEppB7v160006Ev, symObjAddr: 0x31D8, symBinAddr: 0x10000F804, symSize: 0x20 }
  - { offsetInCU: 0xBA92, offset: 0x41645, size: 0x8, addend: 0x0, symName: __ZNSt3__128__exception_guard_exceptionsINS_29_AllocatorDestroyRangeReverseINS_9allocatorI4NodeEENS_16reverse_iteratorIPS3_EEEEE10__completeB7v160006Ev, symObjAddr: 0x31F8, symBinAddr: 0x10000F824, symSize: 0x1C }
  - { offsetInCU: 0xBAB7, offset: 0x4166A, size: 0x8, addend: 0x0, symName: __ZNSt3__128__exception_guard_exceptionsINS_29_AllocatorDestroyRangeReverseINS_9allocatorI4NodeEENS_16reverse_iteratorIPS3_EEEEED1B7v160006Ev, symObjAddr: 0x3214, symBinAddr: 0x10000F840, symSize: 0x2C }
  - { offsetInCU: 0xBAE0, offset: 0x41693, size: 0x8, addend: 0x0, symName: __ZNSt3__128__exception_guard_exceptionsINS_29_AllocatorDestroyRangeReverseINS_9allocatorI4NodeEENS_16reverse_iteratorIPS3_EEEEEC1B7v160006ES8_, symObjAddr: 0x3240, symBinAddr: 0x10000F86C, symSize: 0x34 }
  - { offsetInCU: 0xBB18, offset: 0x416CB, size: 0x8, addend: 0x0, symName: __ZNSt3__128__exception_guard_exceptionsINS_29_AllocatorDestroyRangeReverseINS_9allocatorI4NodeEENS_16reverse_iteratorIPS3_EEEEEC2B7v160006ES8_, symObjAddr: 0x3274, symBinAddr: 0x10000F8A0, symSize: 0x30 }
  - { offsetInCU: 0xBB50, offset: 0x41703, size: 0x8, addend: 0x0, symName: __ZNSt3__129_AllocatorDestroyRangeReverseINS_9allocatorI4NodeEENS_16reverse_iteratorIPS2_EEEC2B7v160006ERS3_RS6_S9_, symObjAddr: 0x32A4, symBinAddr: 0x10000F8D0, symSize: 0x38 }
  - { offsetInCU: 0xBBA6, offset: 0x41759, size: 0x8, addend: 0x0, symName: __ZNSt3__19allocatorI4NodeE9constructB7v160006IS1_JS1_EEEvPT_DpOT0_, symObjAddr: 0x32DC, symBinAddr: 0x10000F908, symSize: 0x30 }
  - { offsetInCU: 0xBBFB, offset: 0x417AE, size: 0x8, addend: 0x0, symName: __ZN4NodeC1EOS_, symObjAddr: 0x330C, symBinAddr: 0x10000F938, symSize: 0x34 }
  - { offsetInCU: 0xBC2F, offset: 0x417E2, size: 0x8, addend: 0x0, symName: __ZN4NodeC2EOS_, symObjAddr: 0x3340, symBinAddr: 0x10000F96C, symSize: 0x64 }
  - { offsetInCU: 0xBC63, offset: 0x41816, size: 0x8, addend: 0x0, symName: __ZNSt3__112basic_stringIcNS_11char_traitsIcEENS_9allocatorIcEEEC1B7v160006EOS5_, symObjAddr: 0x33A4, symBinAddr: 0x10000F9D0, symSize: 0x34 }
  - { offsetInCU: 0xBC9B, offset: 0x4184E, size: 0x8, addend: 0x0, symName: __ZNSt3__112basic_stringIcNS_11char_traitsIcEENS_9allocatorIcEEEC2B7v160006EOS5_, symObjAddr: 0x33D8, symBinAddr: 0x10000FA04, symSize: 0x84 }
  - { offsetInCU: 0xBCD3, offset: 0x41886, size: 0x8, addend: 0x0, symName: __ZNSt3__112basic_stringIcNS_11char_traitsIcEENS_9allocatorIcEEE14__default_initB7v160006Ev, symObjAddr: 0x345C, symBinAddr: 0x10000FA88, symSize: 0x40 }
  - { offsetInCU: 0xBCFD, offset: 0x418B0, size: 0x8, addend: 0x0, symName: __ZNSt3__119__to_address_helperINS_16reverse_iteratorIP4NodeEEvE6__callB7v160006ERKS4_, symObjAddr: 0x34B0, symBinAddr: 0x10000FADC, symSize: 0x38 }
  - { offsetInCU: 0xBD20, offset: 0x418D3, size: 0x8, addend: 0x0, symName: __ZNKSt3__116reverse_iteratorIP4NodeEptB7v160006Ev, symObjAddr: 0x34E8, symBinAddr: 0x10000FB14, symSize: 0x24 }
  - { offsetInCU: 0xBD45, offset: 0x418F8, size: 0x8, addend: 0x0, symName: __ZNSt3__128__exception_guard_exceptionsINS_29_AllocatorDestroyRangeReverseINS_9allocatorI4NodeEENS_16reverse_iteratorIPS3_EEEEED2B7v160006Ev, symObjAddr: 0x350C, symBinAddr: 0x10000FB38, symSize: 0x50 }
  - { offsetInCU: 0xBD6E, offset: 0x41921, size: 0x8, addend: 0x0, symName: __ZNKSt3__129_AllocatorDestroyRangeReverseINS_9allocatorI4NodeEENS_16reverse_iteratorIPS2_EEEclB7v160006Ev, symObjAddr: 0x355C, symBinAddr: 0x10000FB88, symSize: 0xB4 }
  - { offsetInCU: 0xBD94, offset: 0x41947, size: 0x8, addend: 0x0, symName: __ZNSt3__116reverse_iteratorINS0_IP4NodeEEEC1B7v160006ES3_, symObjAddr: 0x3680, symBinAddr: 0x10000FCAC, symSize: 0x3C }
  - { offsetInCU: 0xBDCB, offset: 0x4197E, size: 0x8, addend: 0x0, symName: __ZNSt3__116reverse_iteratorINS0_IP4NodeEEEppB7v160006Ev, symObjAddr: 0x3740, symBinAddr: 0x10000FD6C, symSize: 0x30 }
  - { offsetInCU: 0xBDF0, offset: 0x419A3, size: 0x8, addend: 0x0, symName: __ZNKSt3__116reverse_iteratorINS0_IP4NodeEEE4baseB7v160006Ev, symObjAddr: 0x3770, symBinAddr: 0x10000FD9C, symSize: 0x24 }
  - { offsetInCU: 0xBE1A, offset: 0x419CD, size: 0x8, addend: 0x0, symName: __ZNSt3__119__to_address_helperINS_16reverse_iteratorINS1_IP4NodeEEEEvE6__callB7v160006ERKS5_, symObjAddr: 0x3794, symBinAddr: 0x10000FDC0, symSize: 0x38 }
  - { offsetInCU: 0xBE3D, offset: 0x419F0, size: 0x8, addend: 0x0, symName: __ZNKSt3__116reverse_iteratorINS0_IP4NodeEEEptB7v160006Ev, symObjAddr: 0x37CC, symBinAddr: 0x10000FDF8, symSize: 0x24 }
  - { offsetInCU: 0xBE62, offset: 0x41A15, size: 0x8, addend: 0x0, symName: __ZNKSt3__116reverse_iteratorINS0_IP4NodeEEEdeB7v160006Ev, symObjAddr: 0x37F0, symBinAddr: 0x10000FE1C, symSize: 0x34 }
  - { offsetInCU: 0xBE95, offset: 0x41A48, size: 0x8, addend: 0x0, symName: __ZNSt3__116reverse_iteratorIP4NodeEmmB7v160006Ev, symObjAddr: 0x3824, symBinAddr: 0x10000FE50, symSize: 0x20 }
  - { offsetInCU: 0xBEBA, offset: 0x41A6D, size: 0x8, addend: 0x0, symName: __ZNSt3__116reverse_iteratorINS0_IP4NodeEEEC2B7v160006ES3_, symObjAddr: 0x3844, symBinAddr: 0x10000FE70, symSize: 0x2C }
  - { offsetInCU: 0xBEF1, offset: 0x41AA4, size: 0x8, addend: 0x0, symName: __ZNSt3__116reverse_iteratorIP4NodeEC2B7v160006ES2_, symObjAddr: 0x3870, symBinAddr: 0x10000FE9C, symSize: 0x28 }
  - { offsetInCU: 0xBF28, offset: 0x41ADB, size: 0x8, addend: 0x0, symName: __ZNSt3__114__split_bufferI4NodeRNS_9allocatorIS1_EEED2Ev, symObjAddr: 0x3898, symBinAddr: 0x10000FEC4, symSize: 0x8C }
  - { offsetInCU: 0xBF53, offset: 0x41B06, size: 0x8, addend: 0x0, symName: __ZNSt3__114__split_bufferI4NodeRNS_9allocatorIS1_EEE5clearB7v160006Ev, symObjAddr: 0x3924, symBinAddr: 0x10000FF50, symSize: 0x28 }
  - { offsetInCU: 0xBF78, offset: 0x41B2B, size: 0x8, addend: 0x0, symName: __ZNKSt3__114__split_bufferI4NodeRNS_9allocatorIS1_EEE8capacityB7v160006Ev, symObjAddr: 0x394C, symBinAddr: 0x10000FF78, symSize: 0x40 }
  - { offsetInCU: 0xBF9D, offset: 0x41B50, size: 0x8, addend: 0x0, symName: __ZNSt3__114__split_bufferI4NodeRNS_9allocatorIS1_EEE17__destruct_at_endB7v160006EPS1_, symObjAddr: 0x398C, symBinAddr: 0x10000FFB8, symSize: 0x2C }
  - { offsetInCU: 0xBFCF, offset: 0x41B82, size: 0x8, addend: 0x0, symName: __ZNSt3__114__split_bufferI4NodeRNS_9allocatorIS1_EEE17__destruct_at_endB7v160006EPS1_NS_17integral_constantIbLb0EEE, symObjAddr: 0x39B8, symBinAddr: 0x10000FFE4, symSize: 0x80 }
  - { offsetInCU: 0xC00F, offset: 0x41BC2, size: 0x8, addend: 0x0, symName: __ZNKSt3__114__split_bufferI4NodeRNS_9allocatorIS1_EEE9__end_capB7v160006Ev, symObjAddr: 0x3A38, symBinAddr: 0x100010064, symSize: 0x28 }
  - { offsetInCU: 0xC034, offset: 0x41BE7, size: 0x8, addend: 0x0, symName: __ZNKSt3__117__compressed_pairIP4NodeRNS_9allocatorIS1_EEE5firstB7v160006Ev, symObjAddr: 0x3A60, symBinAddr: 0x10001008C, symSize: 0x24 }
  - { offsetInCU: 0xC059, offset: 0x41C0C, size: 0x8, addend: 0x0, symName: __ZNSt3__16vectorINS0_I4NodeNS_9allocatorIS1_EEEENS2_IS4_EEE9__end_capB7v160006Ev, symObjAddr: 0x3A84, symBinAddr: 0x1000100B0, symSize: 0x28 }
  - { offsetInCU: 0xC07E, offset: 0x41C31, size: 0x8, addend: 0x0, symName: __ZNSt3__16vectorINS0_I4NodeNS_9allocatorIS1_EEEENS2_IS4_EEE22__construct_one_at_endB7v160006IJRKS4_EEEvDpOT_, symObjAddr: 0x3AAC, symBinAddr: 0x1000100D8, symSize: 0x90 }
  - { offsetInCU: 0xC0CC, offset: 0x41C7F, size: 0x8, addend: 0x0, symName: __ZNSt3__16vectorINS0_I4NodeNS_9allocatorIS1_EEEENS2_IS4_EEE21__push_back_slow_pathIRKS4_EEvOT_, symObjAddr: 0x3B3C, symBinAddr: 0x100010168, symSize: 0xD8 }
  - { offsetInCU: 0xC12B, offset: 0x41CDE, size: 0x8, addend: 0x0, symName: __ZNSt3__117__compressed_pairIPNS_6vectorI4NodeNS_9allocatorIS2_EEEENS3_IS5_EEE5firstB7v160006Ev, symObjAddr: 0x3C14, symBinAddr: 0x100010240, symSize: 0x24 }
  - { offsetInCU: 0xC150, offset: 0x41D03, size: 0x8, addend: 0x0, symName: __ZNSt3__122__compressed_pair_elemIPNS_6vectorI4NodeNS_9allocatorIS2_EEEELi0ELb0EE5__getB7v160006Ev, symObjAddr: 0x3C38, symBinAddr: 0x100010264, symSize: 0x14 }
  - { offsetInCU: 0xC18E, offset: 0x41D41, size: 0x8, addend: 0x0, symName: __ZNSt3__16vectorINS0_I4NodeNS_9allocatorIS1_EEEENS2_IS4_EEE21_ConstructTransactionC1B7v160006ERS6_m, symObjAddr: 0x3C4C, symBinAddr: 0x100010278, symSize: 0x3C }
  - { offsetInCU: 0xC1D5, offset: 0x41D88, size: 0x8, addend: 0x0, symName: __ZNSt3__116allocator_traitsINS_9allocatorINS_6vectorI4NodeNS1_IS3_EEEEEEE9constructB7v160006IS5_JRKS5_EvEEvRS6_PT_DpOT0_, symObjAddr: 0x3C88, symBinAddr: 0x1000102B4, symSize: 0x34 }
  - { offsetInCU: 0xC22C, offset: 0x41DDF, size: 0x8, addend: 0x0, symName: __ZNSt3__16vectorINS0_I4NodeNS_9allocatorIS1_EEEENS2_IS4_EEE21_ConstructTransactionD1B7v160006Ev, symObjAddr: 0x3CBC, symBinAddr: 0x1000102E8, symSize: 0x2C }
  - { offsetInCU: 0xC255, offset: 0x41E08, size: 0x8, addend: 0x0, symName: __ZNSt3__16vectorINS0_I4NodeNS_9allocatorIS1_EEEENS2_IS4_EEE21_ConstructTransactionC2B7v160006ERS6_m, symObjAddr: 0x3CE8, symBinAddr: 0x100010314, symSize: 0x4C }
  - { offsetInCU: 0xC29C, offset: 0x41E4F, size: 0x8, addend: 0x0, symName: __ZNSt3__19allocatorINS_6vectorI4NodeNS0_IS2_EEEEE9constructB7v160006IS4_JRKS4_EEEvPT_DpOT0_, symObjAddr: 0x3D34, symBinAddr: 0x100010360, symSize: 0x30 }
  - { offsetInCU: 0xC2F1, offset: 0x41EA4, size: 0x8, addend: 0x0, symName: __ZNSt3__16vectorI4NodeNS_9allocatorIS1_EEEC1ERKS4_, symObjAddr: 0x3D64, symBinAddr: 0x100010390, symSize: 0x34 }
  - { offsetInCU: 0xC32B, offset: 0x41EDE, size: 0x8, addend: 0x0, symName: __ZNSt3__16vectorI4NodeNS_9allocatorIS1_EEEC2ERKS4_, symObjAddr: 0x3D98, symBinAddr: 0x1000103C4, symSize: 0x110 }
  - { offsetInCU: 0xC38C, offset: 0x41F3F, size: 0x8, addend: 0x0, symName: __ZNSt3__116allocator_traitsINS_9allocatorI4NodeEEE37select_on_container_copy_constructionB7v160006IS3_vvEES3_RKS3_, symObjAddr: 0x3EA8, symBinAddr: 0x1000104D4, symSize: 0x10 }
  - { offsetInCU: 0xC3C0, offset: 0x41F73, size: 0x8, addend: 0x0, symName: __ZNSt3__117__compressed_pairIP4NodeNS_9allocatorIS1_EEEC1B7v160006IDnS4_EEOT_OT0_, symObjAddr: 0x3EB8, symBinAddr: 0x1000104E4, symSize: 0x3C }
  - { offsetInCU: 0xC417, offset: 0x41FCA, size: 0x8, addend: 0x0, symName: __ZNSt3__16vectorI4NodeNS_9allocatorIS1_EEE11__vallocateB7v160006Em, symObjAddr: 0x3F34, symBinAddr: 0x100010560, symSize: 0xB4 }
  - { offsetInCU: 0xC45A, offset: 0x4200D, size: 0x8, addend: 0x0, symName: __ZNSt3__16vectorI4NodeNS_9allocatorIS1_EEE18__construct_at_endIPS1_Li0EEEvT_S7_m, symObjAddr: 0x3FE8, symBinAddr: 0x100010614, symSize: 0x8C }
  - { offsetInCU: 0xC4CD, offset: 0x42080, size: 0x8, addend: 0x0, symName: __ZNSt3__128__exception_guard_exceptionsINS_6vectorI4NodeNS_9allocatorIS2_EEE16__destroy_vectorEE10__completeB7v160006Ev, symObjAddr: 0x4074, symBinAddr: 0x1000106A0, symSize: 0x1C }
  - { offsetInCU: 0xC4F2, offset: 0x420A5, size: 0x8, addend: 0x0, symName: __ZNSt3__128__exception_guard_exceptionsINS_6vectorI4NodeNS_9allocatorIS2_EEE16__destroy_vectorEED1B7v160006Ev, symObjAddr: 0x4090, symBinAddr: 0x1000106BC, symSize: 0x2C }
  - { offsetInCU: 0xC51B, offset: 0x420CE, size: 0x8, addend: 0x0, symName: __ZNSt3__117__compressed_pairIP4NodeNS_9allocatorIS1_EEEC2B7v160006IDnS4_EEOT_OT0_, symObjAddr: 0x40BC, symBinAddr: 0x1000106E8, symSize: 0x44 }
  - { offsetInCU: 0xC572, offset: 0x42125, size: 0x8, addend: 0x0, symName: __ZNSt3__122__compressed_pair_elemINS_9allocatorI4NodeEELi1ELb1EEC2B7v160006IS3_vEEOT_, symObjAddr: 0x4100, symBinAddr: 0x10001072C, symSize: 0x18 }
  - { offsetInCU: 0xC5B3, offset: 0x42166, size: 0x8, addend: 0x0, symName: __ZNSt3__128__exception_guard_exceptionsINS_6vectorI4NodeNS_9allocatorIS2_EEE16__destroy_vectorEEC1B7v160006ES6_, symObjAddr: 0x4118, symBinAddr: 0x100010744, symSize: 0x34 }
  - { offsetInCU: 0xC5EA, offset: 0x4219D, size: 0x8, addend: 0x0, symName: __ZNSt3__128__exception_guard_exceptionsINS_6vectorI4NodeNS_9allocatorIS2_EEE16__destroy_vectorEEC2B7v160006ES6_, symObjAddr: 0x414C, symBinAddr: 0x100010778, symSize: 0x24 }
  - { offsetInCU: 0xC621, offset: 0x421D4, size: 0x8, addend: 0x0, symName: __ZNSt3__129_AllocatorDestroyRangeReverseINS_9allocatorI4NodeEEPS2_EC1B7v160006ERS3_RS4_S7_, symObjAddr: 0x42B0, symBinAddr: 0x1000108DC, symSize: 0x44 }
  - { offsetInCU: 0xC677, offset: 0x4222A, size: 0x8, addend: 0x0, symName: __ZNSt3__116allocator_traitsINS_9allocatorI4NodeEEE9constructB7v160006IS2_JRS2_EvEEvRS3_PT_DpOT0_, symObjAddr: 0x42F4, symBinAddr: 0x100010920, symSize: 0x34 }
  - { offsetInCU: 0xC6CE, offset: 0x42281, size: 0x8, addend: 0x0, symName: __ZNSt3__128__exception_guard_exceptionsINS_29_AllocatorDestroyRangeReverseINS_9allocatorI4NodeEEPS3_EEE10__completeB7v160006Ev, symObjAddr: 0x4328, symBinAddr: 0x100010954, symSize: 0x1C }
  - { offsetInCU: 0xC6F3, offset: 0x422A6, size: 0x8, addend: 0x0, symName: __ZNSt3__128__exception_guard_exceptionsINS_29_AllocatorDestroyRangeReverseINS_9allocatorI4NodeEEPS3_EEED1B7v160006Ev, symObjAddr: 0x4344, symBinAddr: 0x100010970, symSize: 0x2C }
  - { offsetInCU: 0xC71C, offset: 0x422CF, size: 0x8, addend: 0x0, symName: __ZNSt3__128__exception_guard_exceptionsINS_29_AllocatorDestroyRangeReverseINS_9allocatorI4NodeEEPS3_EEEC1B7v160006ES6_, symObjAddr: 0x4370, symBinAddr: 0x10001099C, symSize: 0x34 }
  - { offsetInCU: 0xC754, offset: 0x42307, size: 0x8, addend: 0x0, symName: __ZNSt3__128__exception_guard_exceptionsINS_29_AllocatorDestroyRangeReverseINS_9allocatorI4NodeEEPS3_EEEC2B7v160006ES6_, symObjAddr: 0x43A4, symBinAddr: 0x1000109D0, symSize: 0x30 }
  - { offsetInCU: 0xC78C, offset: 0x4233F, size: 0x8, addend: 0x0, symName: __ZNSt3__129_AllocatorDestroyRangeReverseINS_9allocatorI4NodeEEPS2_EC2B7v160006ERS3_RS4_S7_, symObjAddr: 0x43D4, symBinAddr: 0x100010A00, symSize: 0x38 }
  - { offsetInCU: 0xC7E2, offset: 0x42395, size: 0x8, addend: 0x0, symName: __ZNSt3__19allocatorI4NodeE9constructB7v160006IS1_JRS1_EEEvPT_DpOT0_, symObjAddr: 0x440C, symBinAddr: 0x100010A38, symSize: 0x30 }
  - { offsetInCU: 0xC837, offset: 0x423EA, size: 0x8, addend: 0x0, symName: __ZNSt3__128__exception_guard_exceptionsINS_29_AllocatorDestroyRangeReverseINS_9allocatorI4NodeEEPS3_EEED2B7v160006Ev, symObjAddr: 0x443C, symBinAddr: 0x100010A68, symSize: 0x50 }
  - { offsetInCU: 0xC860, offset: 0x42413, size: 0x8, addend: 0x0, symName: __ZNKSt3__129_AllocatorDestroyRangeReverseINS_9allocatorI4NodeEEPS2_EclB7v160006Ev, symObjAddr: 0x448C, symBinAddr: 0x100010AB8, symSize: 0x68 }
  - { offsetInCU: 0xC885, offset: 0x42438, size: 0x8, addend: 0x0, symName: __ZNSt3__128__exception_guard_exceptionsINS_6vectorI4NodeNS_9allocatorIS2_EEE16__destroy_vectorEED2B7v160006Ev, symObjAddr: 0x4564, symBinAddr: 0x100010B90, symSize: 0x50 }
  - { offsetInCU: 0xC8AE, offset: 0x42461, size: 0x8, addend: 0x0, symName: __ZNSt3__16vectorINS0_I4NodeNS_9allocatorIS1_EEEENS2_IS4_EEE21_ConstructTransactionD2B7v160006Ev, symObjAddr: 0x45B4, symBinAddr: 0x100010BE0, symSize: 0x20 }
  - { offsetInCU: 0xC8D6, offset: 0x42489, size: 0x8, addend: 0x0, symName: __ZNKSt3__16vectorINS0_I4NodeNS_9allocatorIS1_EEEENS2_IS4_EEE11__recommendB7v160006Em, symObjAddr: 0x45D4, symBinAddr: 0x100010C00, symSize: 0xB4 }
  - { offsetInCU: 0xC92C, offset: 0x424DF, size: 0x8, addend: 0x0, symName: __ZNSt3__114__split_bufferINS_6vectorI4NodeNS_9allocatorIS2_EEEERNS3_IS5_EEEC1EmmS7_, symObjAddr: 0x4688, symBinAddr: 0x100010CB4, symSize: 0x44 }
  - { offsetInCU: 0xC981, offset: 0x42534, size: 0x8, addend: 0x0, symName: __ZNSt3__114__split_bufferINS_6vectorI4NodeNS_9allocatorIS2_EEEERNS3_IS5_EEED1Ev, symObjAddr: 0x47E4, symBinAddr: 0x100010E10, symSize: 0x2C }
  - { offsetInCU: 0xC9AB, offset: 0x4255E, size: 0x8, addend: 0x0, symName: __ZNKSt3__16vectorINS0_I4NodeNS_9allocatorIS1_EEEENS2_IS4_EEE8max_sizeEv, symObjAddr: 0x4810, symBinAddr: 0x100010E3C, symSize: 0x60 }
  - { offsetInCU: 0xC9D2, offset: 0x42585, size: 0x8, addend: 0x0, symName: __ZNKSt3__16vectorINS0_I4NodeNS_9allocatorIS1_EEEENS2_IS4_EEE20__throw_length_errorB7v160006Ev, symObjAddr: 0x4870, symBinAddr: 0x100010E9C, symSize: 0x1C }
  - { offsetInCU: 0xCA01, offset: 0x425B4, size: 0x8, addend: 0x0, symName: __ZNSt3__116allocator_traitsINS_9allocatorINS_6vectorI4NodeNS1_IS3_EEEEEEE8max_sizeB7v160006IS6_vEEmRKS6_, symObjAddr: 0x488C, symBinAddr: 0x100010EB8, symSize: 0x24 }
  - { offsetInCU: 0xCA2F, offset: 0x425E2, size: 0x8, addend: 0x0, symName: __ZNKSt3__16vectorINS0_I4NodeNS_9allocatorIS1_EEEENS2_IS4_EEE7__allocB7v160006Ev, symObjAddr: 0x48B0, symBinAddr: 0x100010EDC, symSize: 0x28 }
  - { offsetInCU: 0xCA54, offset: 0x42607, size: 0x8, addend: 0x0, symName: __ZNKSt3__19allocatorINS_6vectorI4NodeNS0_IS2_EEEEE8max_sizeB7v160006Ev, symObjAddr: 0x48D8, symBinAddr: 0x100010F04, symSize: 0x18 }
  - { offsetInCU: 0xCA79, offset: 0x4262C, size: 0x8, addend: 0x0, symName: __ZNKSt3__117__compressed_pairIPNS_6vectorI4NodeNS_9allocatorIS2_EEEENS3_IS5_EEE6secondB7v160006Ev, symObjAddr: 0x48F0, symBinAddr: 0x100010F1C, symSize: 0x24 }
  - { offsetInCU: 0xCA9E, offset: 0x42651, size: 0x8, addend: 0x0, symName: __ZNKSt3__122__compressed_pair_elemINS_9allocatorINS_6vectorI4NodeNS1_IS3_EEEEEELi1ELb1EE5__getB7v160006Ev, symObjAddr: 0x4914, symBinAddr: 0x100010F40, symSize: 0x14 }
  - { offsetInCU: 0xCAC3, offset: 0x42676, size: 0x8, addend: 0x0, symName: __ZNSt3__114__split_bufferINS_6vectorI4NodeNS_9allocatorIS2_EEEERNS3_IS5_EEEC2EmmS7_, symObjAddr: 0x4928, symBinAddr: 0x100010F54, symSize: 0xE0 }
  - { offsetInCU: 0xCB36, offset: 0x426E9, size: 0x8, addend: 0x0, symName: __ZNSt3__117__compressed_pairIPNS_6vectorI4NodeNS_9allocatorIS2_EEEERNS3_IS5_EEEC1B7v160006IDnS8_EEOT_OT0_, symObjAddr: 0x4A08, symBinAddr: 0x100011034, symSize: 0x3C }
  - { offsetInCU: 0xCB8D, offset: 0x42740, size: 0x8, addend: 0x0, symName: __ZNSt3__114__split_bufferINS_6vectorI4NodeNS_9allocatorIS2_EEEERNS3_IS5_EEE7__allocB7v160006Ev, symObjAddr: 0x4A84, symBinAddr: 0x1000110B0, symSize: 0x28 }
  - { offsetInCU: 0xCBB2, offset: 0x42765, size: 0x8, addend: 0x0, symName: __ZNSt3__114__split_bufferINS_6vectorI4NodeNS_9allocatorIS2_EEEERNS3_IS5_EEE9__end_capB7v160006Ev, symObjAddr: 0x4AAC, symBinAddr: 0x1000110D8, symSize: 0x28 }
  - { offsetInCU: 0xCBD7, offset: 0x4278A, size: 0x8, addend: 0x0, symName: __ZNSt3__117__compressed_pairIPNS_6vectorI4NodeNS_9allocatorIS2_EEEERNS3_IS5_EEEC2B7v160006IDnS8_EEOT_OT0_, symObjAddr: 0x4AD4, symBinAddr: 0x100011100, symSize: 0x48 }
  - { offsetInCU: 0xCC2E, offset: 0x427E1, size: 0x8, addend: 0x0, symName: __ZNSt3__122__compressed_pair_elemIPNS_6vectorI4NodeNS_9allocatorIS2_EEEELi0ELb0EEC2B7v160006IDnvEEOT_, symObjAddr: 0x4B1C, symBinAddr: 0x100011148, symSize: 0x1C }
  - { offsetInCU: 0xCC6F, offset: 0x42822, size: 0x8, addend: 0x0, symName: __ZNSt3__122__compressed_pair_elemIRNS_9allocatorINS_6vectorI4NodeNS1_IS3_EEEEEELi1ELb0EEC2B7v160006IS7_vEEOT_, symObjAddr: 0x4B38, symBinAddr: 0x100011164, symSize: 0x20 }
  - { offsetInCU: 0xCCB0, offset: 0x42863, size: 0x8, addend: 0x0, symName: __ZNSt3__19allocatorINS_6vectorI4NodeNS0_IS2_EEEEE8allocateB7v160006Em, symObjAddr: 0x4B58, symBinAddr: 0x100011184, symSize: 0x5C }
  - { offsetInCU: 0xCCE3, offset: 0x42896, size: 0x8, addend: 0x0, symName: __ZNSt3__117__compressed_pairIPNS_6vectorI4NodeNS_9allocatorIS2_EEEERNS3_IS5_EEE6secondB7v160006Ev, symObjAddr: 0x4BB4, symBinAddr: 0x1000111E0, symSize: 0x28 }
  - { offsetInCU: 0xCD08, offset: 0x428BB, size: 0x8, addend: 0x0, symName: __ZNSt3__122__compressed_pair_elemIRNS_9allocatorINS_6vectorI4NodeNS1_IS3_EEEEEELi1ELb0EE5__getB7v160006Ev, symObjAddr: 0x4BDC, symBinAddr: 0x100011208, symSize: 0x18 }
  - { offsetInCU: 0xCD2D, offset: 0x428E0, size: 0x8, addend: 0x0, symName: __ZNSt3__117__compressed_pairIPNS_6vectorI4NodeNS_9allocatorIS2_EEEERNS3_IS5_EEE5firstB7v160006Ev, symObjAddr: 0x4BF4, symBinAddr: 0x100011220, symSize: 0x24 }
  - { offsetInCU: 0xCD52, offset: 0x42905, size: 0x8, addend: 0x0, symName: __ZNKSt3__16vectorINS0_I4NodeNS_9allocatorIS1_EEEENS2_IS4_EEE17__annotate_deleteB7v160006Ev, symObjAddr: 0x4C18, symBinAddr: 0x100011244, symSize: 0xD4 }
  - { offsetInCU: 0xCD77, offset: 0x4292A, size: 0x8, addend: 0x0, symName: __ZNSt3__116reverse_iteratorIPNS_6vectorI4NodeNS_9allocatorIS2_EEEEEC1B7v160006ES6_, symObjAddr: 0x4E18, symBinAddr: 0x100011444, symSize: 0x34 }
  - { offsetInCU: 0xCDAE, offset: 0x42961, size: 0x8, addend: 0x0, symName: __ZNKSt3__116reverse_iteratorIPNS_6vectorI4NodeNS_9allocatorIS2_EEEEE4baseB7v160006Ev, symObjAddr: 0x4E4C, symBinAddr: 0x100011478, symSize: 0x18 }
  - { offsetInCU: 0xCDD3, offset: 0x42986, size: 0x8, addend: 0x0, symName: __ZNKSt3__16vectorINS0_I4NodeNS_9allocatorIS1_EEEENS2_IS4_EEE14__annotate_newB7v160006Em, symObjAddr: 0x4EA0, symBinAddr: 0x1000114CC, symSize: 0xC8 }
  - { offsetInCU: 0xCE07, offset: 0x429BA, size: 0x8, addend: 0x0, symName: __ZNSt3__129_AllocatorDestroyRangeReverseINS_9allocatorINS_6vectorI4NodeNS1_IS3_EEEEEENS_16reverse_iteratorIPS5_EEEC1B7v160006ERS6_RS9_SC_, symObjAddr: 0x4FB4, symBinAddr: 0x1000115E0, symSize: 0x44 }
  - { offsetInCU: 0xCE5D, offset: 0x42A10, size: 0x8, addend: 0x0, symName: __ZNSt3__116allocator_traitsINS_9allocatorINS_6vectorI4NodeNS1_IS3_EEEEEEE9constructB7v160006IS5_JS5_EvEEvRS6_PT_DpOT0_, symObjAddr: 0x5040, symBinAddr: 0x10001166C, symSize: 0x34 }
  - { offsetInCU: 0xCEB4, offset: 0x42A67, size: 0x8, addend: 0x0, symName: __ZNKSt3__116reverse_iteratorIPNS_6vectorI4NodeNS_9allocatorIS2_EEEEEdeB7v160006Ev, symObjAddr: 0x5098, symBinAddr: 0x1000116C4, symSize: 0x28 }
  - { offsetInCU: 0xCEE7, offset: 0x42A9A, size: 0x8, addend: 0x0, symName: __ZNSt3__116reverse_iteratorIPNS_6vectorI4NodeNS_9allocatorIS2_EEEEEppB7v160006Ev, symObjAddr: 0x50C0, symBinAddr: 0x1000116EC, symSize: 0x20 }
  - { offsetInCU: 0xCF0C, offset: 0x42ABF, size: 0x8, addend: 0x0, symName: __ZNSt3__128__exception_guard_exceptionsINS_29_AllocatorDestroyRangeReverseINS_9allocatorINS_6vectorI4NodeNS2_IS4_EEEEEENS_16reverse_iteratorIPS6_EEEEE10__completeB7v160006Ev, symObjAddr: 0x50E0, symBinAddr: 0x10001170C, symSize: 0x1C }
  - { offsetInCU: 0xCF31, offset: 0x42AE4, size: 0x8, addend: 0x0, symName: __ZNSt3__128__exception_guard_exceptionsINS_29_AllocatorDestroyRangeReverseINS_9allocatorINS_6vectorI4NodeNS2_IS4_EEEEEENS_16reverse_iteratorIPS6_EEEEED1B7v160006Ev, symObjAddr: 0x50FC, symBinAddr: 0x100011728, symSize: 0x2C }
  - { offsetInCU: 0xCF5A, offset: 0x42B0D, size: 0x8, addend: 0x0, symName: __ZNSt3__128__exception_guard_exceptionsINS_29_AllocatorDestroyRangeReverseINS_9allocatorINS_6vectorI4NodeNS2_IS4_EEEEEENS_16reverse_iteratorIPS6_EEEEEC1B7v160006ESB_, symObjAddr: 0x5128, symBinAddr: 0x100011754, symSize: 0x34 }
  - { offsetInCU: 0xCF92, offset: 0x42B45, size: 0x8, addend: 0x0, symName: __ZNSt3__128__exception_guard_exceptionsINS_29_AllocatorDestroyRangeReverseINS_9allocatorINS_6vectorI4NodeNS2_IS4_EEEEEENS_16reverse_iteratorIPS6_EEEEEC2B7v160006ESB_, symObjAddr: 0x515C, symBinAddr: 0x100011788, symSize: 0x30 }
  - { offsetInCU: 0xCFCA, offset: 0x42B7D, size: 0x8, addend: 0x0, symName: __ZNSt3__129_AllocatorDestroyRangeReverseINS_9allocatorINS_6vectorI4NodeNS1_IS3_EEEEEENS_16reverse_iteratorIPS5_EEEC2B7v160006ERS6_RS9_SC_, symObjAddr: 0x518C, symBinAddr: 0x1000117B8, symSize: 0x38 }
  - { offsetInCU: 0xD020, offset: 0x42BD3, size: 0x8, addend: 0x0, symName: __ZNSt3__19allocatorINS_6vectorI4NodeNS0_IS2_EEEEE9constructB7v160006IS4_JS4_EEEvPT_DpOT0_, symObjAddr: 0x51C4, symBinAddr: 0x1000117F0, symSize: 0x30 }
  - { offsetInCU: 0xD075, offset: 0x42C28, size: 0x8, addend: 0x0, symName: __ZNSt3__16vectorI4NodeNS_9allocatorIS1_EEEC1B7v160006EOS4_, symObjAddr: 0x51F4, symBinAddr: 0x100011820, symSize: 0x34 }
  - { offsetInCU: 0xD0AF, offset: 0x42C62, size: 0x8, addend: 0x0, symName: __ZNSt3__16vectorI4NodeNS_9allocatorIS1_EEEC2B7v160006EOS4_, symObjAddr: 0x5228, symBinAddr: 0x100011854, symSize: 0xDC }
  - { offsetInCU: 0xD0EE, offset: 0x42CA1, size: 0x8, addend: 0x0, symName: __ZNSt3__119__to_address_helperINS_16reverse_iteratorIPNS_6vectorI4NodeNS_9allocatorIS3_EEEEEEvE6__callB7v160006ERKS8_, symObjAddr: 0x5318, symBinAddr: 0x100011944, symSize: 0x38 }
  - { offsetInCU: 0xD111, offset: 0x42CC4, size: 0x8, addend: 0x0, symName: __ZNKSt3__116reverse_iteratorIPNS_6vectorI4NodeNS_9allocatorIS2_EEEEEptB7v160006Ev, symObjAddr: 0x5350, symBinAddr: 0x10001197C, symSize: 0x24 }
  - { offsetInCU: 0xD136, offset: 0x42CE9, size: 0x8, addend: 0x0, symName: __ZNSt3__128__exception_guard_exceptionsINS_29_AllocatorDestroyRangeReverseINS_9allocatorINS_6vectorI4NodeNS2_IS4_EEEEEENS_16reverse_iteratorIPS6_EEEEED2B7v160006Ev, symObjAddr: 0x5374, symBinAddr: 0x1000119A0, symSize: 0x50 }
  - { offsetInCU: 0xD15F, offset: 0x42D12, size: 0x8, addend: 0x0, symName: __ZNKSt3__129_AllocatorDestroyRangeReverseINS_9allocatorINS_6vectorI4NodeNS1_IS3_EEEEEENS_16reverse_iteratorIPS5_EEEclB7v160006Ev, symObjAddr: 0x53C4, symBinAddr: 0x1000119F0, symSize: 0xB4 }
  - { offsetInCU: 0xD185, offset: 0x42D38, size: 0x8, addend: 0x0, symName: __ZNSt3__116reverse_iteratorINS0_IPNS_6vectorI4NodeNS_9allocatorIS2_EEEEEEEC1B7v160006ES7_, symObjAddr: 0x54E8, symBinAddr: 0x100011B14, symSize: 0x3C }
  - { offsetInCU: 0xD1BC, offset: 0x42D6F, size: 0x8, addend: 0x0, symName: __ZNSt3__116reverse_iteratorINS0_IPNS_6vectorI4NodeNS_9allocatorIS2_EEEEEEEppB7v160006Ev, symObjAddr: 0x55A8, symBinAddr: 0x100011BD4, symSize: 0x30 }
  - { offsetInCU: 0xD1E1, offset: 0x42D94, size: 0x8, addend: 0x0, symName: __ZNKSt3__116reverse_iteratorINS0_IPNS_6vectorI4NodeNS_9allocatorIS2_EEEEEEE4baseB7v160006Ev, symObjAddr: 0x55D8, symBinAddr: 0x100011C04, symSize: 0x24 }
  - { offsetInCU: 0xD20B, offset: 0x42DBE, size: 0x8, addend: 0x0, symName: __ZNSt3__119__to_address_helperINS_16reverse_iteratorINS1_IPNS_6vectorI4NodeNS_9allocatorIS3_EEEEEEEEvE6__callB7v160006ERKS9_, symObjAddr: 0x55FC, symBinAddr: 0x100011C28, symSize: 0x38 }
  - { offsetInCU: 0xD22E, offset: 0x42DE1, size: 0x8, addend: 0x0, symName: __ZNKSt3__116reverse_iteratorINS0_IPNS_6vectorI4NodeNS_9allocatorIS2_EEEEEEEptB7v160006Ev, symObjAddr: 0x5634, symBinAddr: 0x100011C60, symSize: 0x24 }
  - { offsetInCU: 0xD253, offset: 0x42E06, size: 0x8, addend: 0x0, symName: __ZNKSt3__116reverse_iteratorINS0_IPNS_6vectorI4NodeNS_9allocatorIS2_EEEEEEEdeB7v160006Ev, symObjAddr: 0x5658, symBinAddr: 0x100011C84, symSize: 0x34 }
  - { offsetInCU: 0xD286, offset: 0x42E39, size: 0x8, addend: 0x0, symName: __ZNSt3__116reverse_iteratorIPNS_6vectorI4NodeNS_9allocatorIS2_EEEEEmmB7v160006Ev, symObjAddr: 0x568C, symBinAddr: 0x100011CB8, symSize: 0x20 }
  - { offsetInCU: 0xD2AB, offset: 0x42E5E, size: 0x8, addend: 0x0, symName: __ZNSt3__116reverse_iteratorINS0_IPNS_6vectorI4NodeNS_9allocatorIS2_EEEEEEEC2B7v160006ES7_, symObjAddr: 0x56AC, symBinAddr: 0x100011CD8, symSize: 0x2C }
  - { offsetInCU: 0xD2E2, offset: 0x42E95, size: 0x8, addend: 0x0, symName: __ZNSt3__116reverse_iteratorIPNS_6vectorI4NodeNS_9allocatorIS2_EEEEEC2B7v160006ES6_, symObjAddr: 0x56D8, symBinAddr: 0x100011D04, symSize: 0x28 }
  - { offsetInCU: 0xD319, offset: 0x42ECC, size: 0x8, addend: 0x0, symName: __ZNSt3__114__split_bufferINS_6vectorI4NodeNS_9allocatorIS2_EEEERNS3_IS5_EEED2Ev, symObjAddr: 0x5700, symBinAddr: 0x100011D2C, symSize: 0x8C }
  - { offsetInCU: 0xD344, offset: 0x42EF7, size: 0x8, addend: 0x0, symName: __ZNSt3__114__split_bufferINS_6vectorI4NodeNS_9allocatorIS2_EEEERNS3_IS5_EEE5clearB7v160006Ev, symObjAddr: 0x578C, symBinAddr: 0x100011DB8, symSize: 0x28 }
  - { offsetInCU: 0xD369, offset: 0x42F1C, size: 0x8, addend: 0x0, symName: __ZNSt3__116allocator_traitsINS_9allocatorINS_6vectorI4NodeNS1_IS3_EEEEEEE10deallocateB7v160006ERS6_PS5_m, symObjAddr: 0x57B4, symBinAddr: 0x100011DE0, symSize: 0x34 }
  - { offsetInCU: 0xD3AB, offset: 0x42F5E, size: 0x8, addend: 0x0, symName: __ZNKSt3__114__split_bufferINS_6vectorI4NodeNS_9allocatorIS2_EEEERNS3_IS5_EEE8capacityB7v160006Ev, symObjAddr: 0x57E8, symBinAddr: 0x100011E14, symSize: 0x40 }
  - { offsetInCU: 0xD3D0, offset: 0x42F83, size: 0x8, addend: 0x0, symName: __ZNSt3__114__split_bufferINS_6vectorI4NodeNS_9allocatorIS2_EEEERNS3_IS5_EEE17__destruct_at_endB7v160006EPS5_, symObjAddr: 0x5828, symBinAddr: 0x100011E54, symSize: 0x2C }
  - { offsetInCU: 0xD402, offset: 0x42FB5, size: 0x8, addend: 0x0, symName: __ZNSt3__114__split_bufferINS_6vectorI4NodeNS_9allocatorIS2_EEEERNS3_IS5_EEE17__destruct_at_endB7v160006EPS5_NS_17integral_constantIbLb0EEE, symObjAddr: 0x5854, symBinAddr: 0x100011E80, symSize: 0x80 }
  - { offsetInCU: 0xD442, offset: 0x42FF5, size: 0x8, addend: 0x0, symName: __ZNSt3__19allocatorINS_6vectorI4NodeNS0_IS2_EEEEE10deallocateB7v160006EPS4_m, symObjAddr: 0x58D4, symBinAddr: 0x100011F00, symSize: 0x44 }
  - { offsetInCU: 0xD483, offset: 0x43036, size: 0x8, addend: 0x0, symName: __ZNKSt3__114__split_bufferINS_6vectorI4NodeNS_9allocatorIS2_EEEERNS3_IS5_EEE9__end_capB7v160006Ev, symObjAddr: 0x5918, symBinAddr: 0x100011F44, symSize: 0x28 }
  - { offsetInCU: 0xD4A8, offset: 0x4305B, size: 0x8, addend: 0x0, symName: __ZNKSt3__117__compressed_pairIPNS_6vectorI4NodeNS_9allocatorIS2_EEEERNS3_IS5_EEE5firstB7v160006Ev, symObjAddr: 0x5940, symBinAddr: 0x100011F6C, symSize: 0x24 }
  - { offsetInCU: 0x4F11, offset: 0x48076, size: 0x8, addend: 0x0, symName: __ZNSt3__119__debug_db_insert_cB7v160006INS_6vectorINS1_I4NodeNS_9allocatorIS2_EEEENS3_IS5_EEEEEEvPT_, symObjAddr: 0x48C, symBinAddr: 0x100012328, symSize: 0x10 }
  - { offsetInCU: 0x4F42, offset: 0x480A7, size: 0x8, addend: 0x0, symName: __ZNSt3__118__debug_db_erase_cB7v160006INS_6vectorINS1_I4NodeNS_9allocatorIS2_EEEENS3_IS5_EEEEEEvPT_, symObjAddr: 0xBC0, symBinAddr: 0x100012518, symSize: 0x10 }
  - { offsetInCU: 0x7107, offset: 0x4A26C, size: 0x8, addend: 0x0, symName: _main, symObjAddr: 0x0, symBinAddr: 0x100011F90, symSize: 0x6C }
  - { offsetInCU: 0x72CF, offset: 0x4A434, size: 0x8, addend: 0x0, symName: __ZN2AiC1Ev, symObjAddr: 0x6C, symBinAddr: 0x100011FFC, symSize: 0x2C }
  - { offsetInCU: 0x72FA, offset: 0x4A45F, size: 0x8, addend: 0x0, symName: __ZN2AiD1Ev, symObjAddr: 0x98, symBinAddr: 0x100012028, symSize: 0x2C }
  - { offsetInCU: 0x7325, offset: 0x4A48A, size: 0x8, addend: 0x0, symName: __ZN2AiC2Ev, symObjAddr: 0xC4, symBinAddr: 0x100012054, symSize: 0x1E8 }
  - { offsetInCU: 0x7350, offset: 0x4A4B5, size: 0x8, addend: 0x0, symName: __ZNSt3__16vectorINS0_I4NodeNS_9allocatorIS1_EEEENS2_IS4_EEEC1B7v160006Ev, symObjAddr: 0x2AC, symBinAddr: 0x10001223C, symSize: 0x2C }
  - { offsetInCU: 0x7379, offset: 0x4A4DE, size: 0x8, addend: 0x0, symName: __ZNSt3__16vectorINS0_I4NodeNS_9allocatorIS1_EEEENS2_IS4_EEED1B7v160006Ev, symObjAddr: 0x3C0, symBinAddr: 0x100012268, symSize: 0x2C }
  - { offsetInCU: 0x73A2, offset: 0x4A507, size: 0x8, addend: 0x0, symName: __ZNSt3__16vectorINS0_I4NodeNS_9allocatorIS1_EEEENS2_IS4_EEEC2B7v160006Ev, symObjAddr: 0x3EC, symBinAddr: 0x100012294, symSize: 0x58 }
  - { offsetInCU: 0x73D5, offset: 0x4A53A, size: 0x8, addend: 0x0, symName: __ZNSt3__117__compressed_pairIPNS_6vectorI4NodeNS_9allocatorIS2_EEEENS3_IS5_EEEC1B7v160006IDnNS_18__default_init_tagEEEOT_OT0_, symObjAddr: 0x444, symBinAddr: 0x1000122EC, symSize: 0x3C }
  - { offsetInCU: 0x742C, offset: 0x4A591, size: 0x8, addend: 0x0, symName: __ZNSt3__117__compressed_pairIPNS_6vectorI4NodeNS_9allocatorIS2_EEEENS3_IS5_EEEC2B7v160006IDnNS_18__default_init_tagEEEOT_OT0_, symObjAddr: 0x49C, symBinAddr: 0x100012338, symSize: 0x40 }
  - { offsetInCU: 0x7483, offset: 0x4A5E8, size: 0x8, addend: 0x0, symName: __ZNSt3__122__compressed_pair_elemINS_9allocatorINS_6vectorI4NodeNS1_IS3_EEEEEELi1ELb1EEC2B7v160006ENS_18__default_init_tagE, symObjAddr: 0x4F8, symBinAddr: 0x100012378, symSize: 0x2C }
  - { offsetInCU: 0x74B7, offset: 0x4A61C, size: 0x8, addend: 0x0, symName: __ZNSt3__19allocatorINS_6vectorI4NodeNS0_IS2_EEEEEC2B7v160006Ev, symObjAddr: 0x524, symBinAddr: 0x1000123A4, symSize: 0x2C }
  - { offsetInCU: 0x74E0, offset: 0x4A645, size: 0x8, addend: 0x0, symName: __ZNSt3__116__non_trivial_ifILb1ENS_9allocatorINS_6vectorI4NodeNS1_IS3_EEEEEEEC2B7v160006Ev, symObjAddr: 0x550, symBinAddr: 0x1000123D0, symSize: 0x14 }
  - { offsetInCU: 0x750E, offset: 0x4A673, size: 0x8, addend: 0x0, symName: __ZNSt3__16vectorINS0_I4NodeNS_9allocatorIS1_EEEENS2_IS4_EEED2B7v160006Ev, symObjAddr: 0x9B8, symBinAddr: 0x1000123E4, symSize: 0x44 }
  - { offsetInCU: 0x7537, offset: 0x4A69C, size: 0x8, addend: 0x0, symName: __ZNSt3__16vectorINS0_I4NodeNS_9allocatorIS1_EEEENS2_IS4_EEE16__destroy_vectorC1ERS6_, symObjAddr: 0x9FC, symBinAddr: 0x100012428, symSize: 0x34 }
  - { offsetInCU: 0x756F, offset: 0x4A6D4, size: 0x8, addend: 0x0, symName: __ZNSt3__16vectorINS0_I4NodeNS_9allocatorIS1_EEEENS2_IS4_EEE16__destroy_vectorclB7v160006Ev, symObjAddr: 0xA30, symBinAddr: 0x10001245C, symSize: 0x9C }
  - { offsetInCU: 0x7594, offset: 0x4A6F9, size: 0x8, addend: 0x0, symName: __ZNSt3__16vectorINS0_I4NodeNS_9allocatorIS1_EEEENS2_IS4_EEE16__destroy_vectorC2ERS6_, symObjAddr: 0xACC, symBinAddr: 0x1000124F8, symSize: 0x20 }
  - { offsetInCU: 0x75CC, offset: 0x4A731, size: 0x8, addend: 0x0, symName: __ZN2AiD2Ev, symObjAddr: 0x1498, symBinAddr: 0x100012528, symSize: 0x74 }
...
